 RichEditDemo_d

 Timestamp is 55bce9a0 (Sat Aug 01 23:45:36 2015)

 Preferred load address is 00400000

 Start         Length     Name                   Class
 0001:00000000 00002d34H .text$di                CODE
 0001:00002d40 0003afc4H .text$mn                CODE
 0001:0003dd10 00003352H .text$x                 CODE
 0001:00041070 00001190H .text$yd                CODE
 0002:00000000 00000104H .CRT$XCA                DATA
 0002:00000104 00000104H .CRT$XCAA               DATA
 0002:00000208 0000013aH .CRT$XCU                DATA
 0002:00000344 00000104H .CRT$XCZ                DATA
 0002:00000448 00000104H .CRT$XIA                DATA
 0002:0000054c 00000104H .CRT$XIAA               DATA
 0002:00000650 00000104H .CRT$XIC                DATA
 0002:00000754 00000104H .CRT$XIY                DATA
 0002:00000858 00000104H .CRT$XIZ                DATA
 0002:00000960 000067c7H .rdata                  DATA
 0002:00007128 00000194H .rdata$debug            DATA
 0002:000072bc 000010aaH .rdata$r                DATA
 0002:00008370 0000034eH .rdata$sxdata           DATA
 0002:000086c0 00000104H .rtc$IAA                DATA
 0002:000087c4 0000014cH .rtc$IMZ                DATA
 0002:00008910 00000104H .rtc$IZZ                DATA
 0002:00008a14 00000104H .rtc$TAA                DATA
 0002:00008b18 0000014cH .rtc$TMZ                DATA
 0002:00008c64 00000104H .rtc$TZZ                DATA
 0002:00008d68 0000215eH .xdata$x                DATA
 0002:0000aec6 00000000H .edata                  DATA
 0003:00000000 000001cdH .data                   DATA
 0003:000001d0 0000075bH .data$r                 DATA
 0003:00000930 00000920H .bss                    DATA
 0004:00000000 00000adcH .idata$5                DATA
 0004:00000adc 000000dcH .idata$2                DATA
 0004:00000bb8 00000014H .idata$3                DATA
 0004:00000bcc 00000adcH .idata$4                DATA
 0004:000016a8 00004d71H .idata$6                DATA
 0005:00000000 0000056cH .rsrc$01                DATA
 0005:00000570 00073ef6H .rsrc$02                DATA

  Address         Publics by Value              Rva+Base       Lib:Object

 0000:00000000       ___guard_flags             00000000     <absolute>
 0000:00000000       __except_list              00000000     <absolute>
 0000:00000000       ___guard_fids_table        00000000     <absolute>
 0000:00000000       ___guard_fids_count        00000000     <absolute>
 0000:0000007b       ___safe_se_handler_count   0000007b     <absolute>
 0000:00009876       __ldused                   00009876     <absolute>
 0000:00009876       __fltused                  00009876     <absolute>
 0000:00000000       ___ImageBase               00400000     <linker-defined>
 0001:00002d40       ??0CButtonExUI@DuiLib@@QAE@XZ 00403d40 f   ButtonExUI.obj
 0001:00002e10       ??1CButtonExUI@DuiLib@@UAE@XZ 00403e10 f i ButtonExUI.obj
 0001:00002ed0       ??_ECButtonExUI@DuiLib@@UAEPAXI@Z 00403ed0 f i ButtonExUI.obj
 0001:00002ed0       ??_GCButtonExUI@DuiLib@@UAEPAXI@Z 00403ed0 f i ButtonExUI.obj
 0001:00002f40       ?GetClass@CButtonExUI@DuiLib@@UBEPB_WXZ 00403f40 f   ButtonExUI.obj
 0001:00002f80       ?GetIconImage@CButtonExUI@DuiLib@@QAEPB_WXZ 00403f80 f   ButtonExUI.obj
 0001:00002ff0       ?GetInterface@CButtonExUI@DuiLib@@UAEPAXPB_W@Z 00403ff0 f   ButtonExUI.obj
 0001:00003080       ?PaintStatusImage@CButtonExUI@DuiLib@@UAEXPAUHDC__@@@Z 00404080 f   ButtonExUI.obj
 0001:00003240       ?SetAttribute@CButtonExUI@DuiLib@@UAEXPB_W0@Z 00404240 f   ButtonExUI.obj
 0001:000032e0       ?SetIconImage@CButtonExUI@DuiLib@@QAEXPB_W@Z 004042e0 f   ButtonExUI.obj
 0001:00003360       ??$_Allocate@PAVCGifImage@@@std@@YAPAPAVCGifImage@@IPAPAV1@@Z 00404360 f i FaceCtrl.obj
 0001:00003400       ??$_Allocate@U_Container_proxy@std@@@std@@YAPAU_Container_proxy@0@IPAU10@@Z 00404400 f i FaceCtrl.obj
 0001:000034a0       ??$_Debug_pointer@PAVCGifImage@@@std@@YAXPAPAVCGifImage@@PB_WI@Z 004044a0 f i FaceCtrl.obj
 0001:00003510       ??$_Debug_range2@PAPAVCGifImage@@@std@@YAXPAPAVCGifImage@@0PB_WIUrandom_access_iterator_tag@0@@Z 00404510 f i FaceCtrl.obj
 0001:000035c0       ??$_Debug_range@PAPAVCGifImage@@@std@@YAXPAPAVCGifImage@@0PB_WI@Z 004045c0 f i FaceCtrl.obj
 0001:00003640       ??$_Destroy_range@U?$_Wrap_alloc@V?$allocator@PAVCGifImage@@@std@@@std@@@std@@YAXPAPAVCGifImage@@0AAU?$_Wrap_alloc@V?$allocator@PAVCGifImage@@@std@@@0@@Z 00404640 f i FaceCtrl.obj
 0001:000036c0       ??$_Destroy_range@U?$_Wrap_alloc@V?$allocator@PAVCGifImage@@@std@@@std@@@std@@YAXPAPAVCGifImage@@0AAU?$_Wrap_alloc@V?$allocator@PAVCGifImage@@@std@@@0@U_Scalar_ptr_iterator_tag@0@@Z 004046c0 f i FaceCtrl.obj
 0001:000036f0       ??$_Iter_cat@PAPAVCGifImage@@@std@@YA?AUrandom_access_iterator_tag@0@ABQAPAVCGifImage@@@Z 004046f0 f i FaceCtrl.obj
 0001:00003770       ??$_Ptr_cat@PAVCGifImage@@PAV1@@std@@YA?AU_Scalar_ptr_iterator_tag@0@PAPAVCGifImage@@0@Z 00404770 f i FaceCtrl.obj
 0001:000037e0       ??$_Rechecked@PAPAVCGifImage@@PAPAV1@@std@@YAAAPAPAVCGifImage@@AAPAPAV1@PAPAV1@@Z 004047e0 f i FaceCtrl.obj
 0001:00003820       ??$_Umove@PAPAVCGifImage@@@?$vector@PAVCGifImage@@V?$allocator@PAVCGifImage@@@std@@@std@@IAEPAPAVCGifImage@@PAPAV2@00@Z 00404820 f i FaceCtrl.obj
 0001:000038d0       ??$_Unchecked@PAPAVCGifImage@@@std@@YAPAPAVCGifImage@@PAPAV1@@Z 004048d0 f i FaceCtrl.obj
 0001:00003910       ??$_Uninit_move@PAPAVCGifImage@@PAPAV1@U?$_Wrap_alloc@V?$allocator@PAVCGifImage@@@std@@@std@@@std@@YAPAPAVCGifImage@@PAPAV1@00AAU?$_Wrap_alloc@V?$allocator@PAVCGifImage@@@std@@@0@@Z 00404910 f i FaceCtrl.obj
 0001:000039b0       ??$_Uninit_move@PAVCGifImage@@PAV1@PAV1@@std@@YAPAPAVCGifImage@@PAPAV1@00AAU?$_Wrap_alloc@V?$allocator@PAVCGifImage@@@std@@@0@0U_Scalar_ptr_iterator_tag@0@@Z 004049b0 f i FaceCtrl.obj
 0001:00003a70       ??$_Uninitialized_move@PAPAVCGifImage@@PAPAV1@U?$_Wrap_alloc@V?$allocator@PAVCGifImage@@@std@@@std@@@std@@YAPAPAVCGifImage@@PAPAV1@00AAU?$_Wrap_alloc@V?$allocator@PAVCGifImage@@@std@@@0@@Z 00404a70 f i FaceCtrl.obj
 0001:00003b10       ??$_Val_type@PAPAVCGifImage@@@std@@YAPAPAVCGifImage@@PAPAV1@@Z 00404b10 f i FaceCtrl.obj
 0001:00003b40       ??$addressof@QAVCGifImage@@@std@@YAPBQAVCGifImage@@ABQAV1@@Z 00404b40 f i FaceCtrl.obj
 0001:00003b80       ??$addressof@_W@std@@YAPA_WAA_W@Z 00404b80 f i FaceCtrl.obj
 0001:00003bc0       ??$construct@PAVCGifImage@@AAPAV1@@?$_Wrap_alloc@V?$allocator@PAVCGifImage@@@std@@@std@@QAEXPAPAVCGifImage@@AAPAV2@@Z 00404bc0 f i FaceCtrl.obj
 0001:00003c30       ??$construct@PAVCGifImage@@AAPAV1@@?$allocator@PAVCGifImage@@@std@@QAEXPAPAVCGifImage@@AAPAV2@@Z 00404c30 f i FaceCtrl.obj
 0001:00003d30       ??$construct@PAVCGifImage@@AAPAV1@@?$allocator_traits@V?$allocator@PAVCGifImage@@@std@@@std@@SAXAAV?$allocator@PAVCGifImage@@@1@PAPAVCGifImage@@AAPAV3@@Z 00404d30 f i FaceCtrl.obj
 0001:00003d90       ??$construct@PAVCGifImage@@ABQAV1@@?$_Wrap_alloc@V?$allocator@PAVCGifImage@@@std@@@std@@QAEXPAPAVCGifImage@@ABQAV2@@Z 00404d90 f i FaceCtrl.obj
 0001:00003e00       ??$construct@PAVCGifImage@@ABQAV1@@?$allocator_traits@V?$allocator@PAVCGifImage@@@std@@@std@@SAXAAV?$allocator@PAVCGifImage@@@1@PAPAVCGifImage@@ABQAV3@@Z 00404e00 f i FaceCtrl.obj
 0001:00003e60       ??$construct@U_Container_proxy@std@@U12@@?$_Wrap_alloc@V?$allocator@U_Container_proxy@std@@@std@@@std@@QAEXPAU_Container_proxy@1@$$QAU21@@Z 00404e60 f i FaceCtrl.obj
 0001:00003ed0       ??$construct@U_Container_proxy@std@@U12@@?$allocator@U_Container_proxy@std@@@std@@QAEXPAU_Container_proxy@1@$$QAU21@@Z 00404ed0 f i FaceCtrl.obj
 0001:00003fe0       ??$construct@U_Container_proxy@std@@U12@@?$allocator_traits@V?$allocator@U_Container_proxy@std@@@std@@@std@@SAXAAV?$allocator@U_Container_proxy@std@@@1@PAU_Container_proxy@1@$$QAU31@@Z 00404fe0 f i FaceCtrl.obj
 0001:00004040       ??$destroy@U_Container_proxy@std@@@?$_Wrap_alloc@V?$allocator@U_Container_proxy@std@@@std@@@std@@QAEXPAU_Container_proxy@1@@Z 00405040 f i FaceCtrl.obj
 0001:000040a0       ??$destroy@U_Container_proxy@std@@@?$allocator@U_Container_proxy@std@@@std@@QAEXPAU_Container_proxy@1@@Z 004050a0 f i FaceCtrl.obj
 0001:000040e0       ??$destroy@U_Container_proxy@std@@@?$allocator_traits@V?$allocator@U_Container_proxy@std@@@std@@@std@@SAXAAV?$allocator@U_Container_proxy@std@@@1@PAU_Container_proxy@1@@Z 004050e0 f i FaceCtrl.obj
 0001:00004130       ??$forward@AAPAVCGifImage@@@std@@YAAAPAVCGifImage@@AAPAV1@@Z 00405130 f i FaceCtrl.obj
 0001:00004170       ??$forward@ABQAVCGifImage@@@std@@YAABQAVCGifImage@@ABQAV1@@Z 00405170 f i FaceCtrl.obj
 0001:000041b0       ??$forward@U_Container_proxy@std@@@std@@YA$$QAU_Container_proxy@0@AAU10@@Z 004051b0 f i FaceCtrl.obj
 0001:000041f0       ??0?$_Vector_alloc@$0A@U?$_Vec_base_types@PAVCGifImage@@V?$allocator@PAVCGifImage@@@std@@@std@@@std@@QAE@ABV?$allocator@PAVCGifImage@@@1@@Z 004051f0 f i FaceCtrl.obj
 0001:000042a0       ??0?$_Vector_val@U?$_Simple_types@PAVCGifImage@@@std@@@std@@QAE@XZ 004052a0 f i FaceCtrl.obj
 0001:00004330       ??0?$_Wrap_alloc@V?$allocator@PAVCGifImage@@@std@@@std@@QAE@XZ 00405330 f i FaceCtrl.obj
 0001:00004390       ??0?$_Wrap_alloc@V?$allocator@U_Container_proxy@std@@@std@@@std@@QAE@XZ 00405390 f i FaceCtrl.obj
 0001:000043f0       ??0?$allocator@PAVCGifImage@@@std@@QAE@XZ 004053f0 f i FaceCtrl.obj
 0001:00004430       ??0?$allocator@U_Container_proxy@std@@@std@@QAE@XZ 00405430 f i FaceCtrl.obj
 0001:00004470       ??0?$vector@PAVCGifImage@@V?$allocator@PAVCGifImage@@@std@@@std@@QAE@XZ 00405470 f i FaceCtrl.obj
 0001:000044e0       ??0CFaceCtrl@DuiLib@@QAE@XZ 004054e0 f   FaceCtrl.obj
 0001:000046c0       ??0_Container_proxy@std@@QAE@XZ 004056c0 f i FaceCtrl.obj
 0001:00004710       ??1?$_Vector_alloc@$0A@U?$_Vec_base_types@PAVCGifImage@@V?$allocator@PAVCGifImage@@@std@@@std@@@std@@QAE@XZ 00405710 f i FaceCtrl.obj
 0001:00004770       ??1?$_Vector_val@U?$_Simple_types@PAVCGifImage@@@std@@@std@@QAE@XZ 00405770 f i FaceCtrl.obj
 0001:000047d0       ??1?$vector@PAVCGifImage@@V?$allocator@PAVCGifImage@@@std@@@std@@QAE@XZ 004057d0 f i FaceCtrl.obj
 0001:00004830       ??1CFaceCtrl@DuiLib@@UAE@XZ 00405830 f   FaceCtrl.obj
 0001:00004950       ??2@YAPAXIPAX@Z            00405950 f i FaceCtrl.obj
 0001:00004990       ??3@YAXPAX0@Z              00405990 f i FaceCtrl.obj
 0001:000049c0       ??A?$vector@PAVCFaceInfo@@V?$allocator@PAVCFaceInfo@@@std@@@std@@QAEAAPAVCFaceInfo@@I@Z 004059c0 f i FaceCtrl.obj
 0001:00004ae0       ??A?$vector@PAVCGifImage@@V?$allocator@PAVCGifImage@@@std@@@std@@QAEAAPAVCGifImage@@I@Z 00405ae0 f i FaceCtrl.obj
 0001:00004c00       ??_GCFaceCtrl@DuiLib@@UAEPAXI@Z 00405c00 f i FaceCtrl.obj
 0001:00004c00       ??_ECFaceCtrl@DuiLib@@UAEPAXI@Z 00405c00 f i FaceCtrl.obj
 0001:00004c70       ??_GCGifImage@@QAEPAXI@Z   00405c70 f i FaceCtrl.obj
 0001:00004ce0       ??_H@YGXPAXIHP6EPAX0@Z@Z   00405ce0 f i FaceCtrl.obj
 0001:00004d50       ?CalcCenterRect@CFaceCtrl@DuiLib@@AAEXAAUtagRECT@@HH0@Z 00405d50 f   FaceCtrl.obj
 0001:00004e60       ?CalcZoomRect@CFaceCtrl@DuiLib@@AAEXUtagPOINT@@@Z 00405e60 f   FaceCtrl.obj
 0001:00004fc0       ?DestroyImage@CFaceCtrl@DuiLib@@AAEXXZ 00405fc0 f   FaceCtrl.obj
 0001:000050c0       ?DoEvent@CFaceCtrl@DuiLib@@UAEXAAUtagTEventUI@2@@Z 004060c0 f   FaceCtrl.obj
 0001:00005540       ?DrawFocusBorder@CFaceCtrl@DuiLib@@AAEXPAUHDC__@@ABUtagRECT@@@Z 00406540 f   FaceCtrl.obj
 0001:000056a0       ?DrawLine@CFaceCtrl@DuiLib@@AAEXPAUHDC__@@@Z 004066a0 f   FaceCtrl.obj
 0001:00005900       ?DrawZoomImage@CFaceCtrl@DuiLib@@AAEXPAUHDC__@@@Z 00406900 f   FaceCtrl.obj
 0001:00005bb0       ?GetClass@CFaceCtrl@DuiLib@@UBEPB_WXZ 00406bb0 f   FaceCtrl.obj
 0001:00005bf0       ?GetFaceInfo@CFaceCtrl@DuiLib@@QAEPAVCFaceInfo@@H@Z 00406bf0 f   FaceCtrl.obj
 0001:00005cd0       ?GetInterface@CFaceCtrl@DuiLib@@UAEPAXPB_W@Z 00406cd0 f   FaceCtrl.obj
 0001:00005d60       ?GetItemRect@CFaceCtrl@DuiLib@@AAEHHAAUtagRECT@@@Z 00406d60 f   FaceCtrl.obj
 0001:00005fa0       ?GetZoomImage@CFaceCtrl@DuiLib@@AAEPAVCGifImage@@XZ 00406fa0 f   FaceCtrl.obj
 0001:00006040       ?HitTest@CFaceCtrl@DuiLib@@AAEHUtagPOINT@@@Z 00407040 f   FaceCtrl.obj
 0001:00006230       ?LoadImageW@CFaceCtrl@DuiLib@@AAEHH@Z 00407230 f   FaceCtrl.obj
 0001:000064d0       ?PaintBkColor@CFaceCtrl@DuiLib@@UAEXPAUHDC__@@@Z 004074d0 f   FaceCtrl.obj
 0001:00006550       ?PaintBkImage@CFaceCtrl@DuiLib@@UAEXPAUHDC__@@@Z 00407550 f   FaceCtrl.obj
 0001:000065c0       ?PaintStatusImage@CFaceCtrl@DuiLib@@UAEXPAUHDC__@@@Z 004075c0 f   FaceCtrl.obj
 0001:00006860       ?SetAttribute@CFaceCtrl@DuiLib@@UAEXPB_W0@Z 00407860 f   FaceCtrl.obj
 0001:000068d0       ?SetCurPage@CFaceCtrl@DuiLib@@QAEXH@Z 004078d0 f   FaceCtrl.obj
 0001:00006a00       ?SetFaceList@CFaceCtrl@DuiLib@@QAEXPAVCFaceList@@@Z 00407a00 f   FaceCtrl.obj
 0001:00006a50       ?SetFocusBorderColor@CFaceCtrl@DuiLib@@QAEXK@Z 00407a50 f   FaceCtrl.obj
 0001:00006aa0       ?SetItemSize@CFaceCtrl@DuiLib@@QAEXHH@Z 00407aa0 f   FaceCtrl.obj
 0001:00006b00       ?SetLineColor@CFaceCtrl@DuiLib@@QAEXK@Z 00407b00 f   FaceCtrl.obj
 0001:00006b50       ?SetRowAndCol@CFaceCtrl@DuiLib@@QAEXHH@Z 00407b50 f   FaceCtrl.obj
 0001:00006bb0       ?SetZoomBorderColor@CFaceCtrl@DuiLib@@QAEXK@Z 00407bb0 f   FaceCtrl.obj
 0001:00006c00       ?SetZoomSize@CFaceCtrl@DuiLib@@QAEXHH@Z 00407c00 f   FaceCtrl.obj
 0001:00006c60       ?_Alloc_proxy@?$_Vector_alloc@$0A@U?$_Vec_base_types@PAVCGifImage@@V?$allocator@PAVCGifImage@@@std@@@std@@@std@@QAEXXZ 00407c60 f i FaceCtrl.obj
 0001:00006d30       ?_Clrcont@_Iterator_base12@std@@QAEXXZ 00407d30 f i FaceCtrl.obj
 0001:00006d70       ?_Destroy@?$vector@PAVCGifImage@@V?$allocator@PAVCGifImage@@@std@@@std@@IAEXPAPAVCGifImage@@0@Z 00407d70 f i FaceCtrl.obj
 0001:00006e20       ?_Free_proxy@?$_Vector_alloc@$0A@U?$_Vec_base_types@PAVCGifImage@@V?$allocator@PAVCGifImage@@@std@@@std@@@std@@QAEXXZ 00407e20 f i FaceCtrl.obj
 0001:00006f00       ?_Getal@?$_Vector_alloc@$0A@U?$_Vec_base_types@PAVCGifImage@@V?$allocator@PAVCGifImage@@@std@@@std@@@std@@QBE?AU?$_Wrap_alloc@V?$allocator@PAVCGifImage@@@std@@@2@XZ 00407f00 f i FaceCtrl.obj
 0001:00006f60       ?_Getpnext@_Iterator_base12@std@@QAEPAPAU12@XZ 00407f60 f i FaceCtrl.obj
 0001:00006fa0       ?_Grow_to@?$vector@PAVCGifImage@@V?$allocator@PAVCGifImage@@@std@@@std@@IBEII@Z 00407fa0 f i FaceCtrl.obj
 0001:00007050       ?_Inside@?$vector@PAVCGifImage@@V?$allocator@PAVCGifImage@@@std@@@std@@IBE_NPBQAVCGifImage@@@Z 00408050 f i FaceCtrl.obj
 0001:000070d0       ?_Myptr@?$_String_val@U?$_Simple_types@_W@std@@@std@@QBEPB_WXZ 004080d0 f i FaceCtrl.obj
 0001:00007160       ?_Orphan_range@?$vector@PAVCGifImage@@V?$allocator@PAVCGifImage@@@std@@@std@@IBEXPAPAVCGifImage@@0@Z 00408160 f i FaceCtrl.obj
 0001:000072e0       ?_Reallocate@?$vector@PAVCGifImage@@V?$allocator@PAVCGifImage@@@std@@@std@@IAEXI@Z 004082e0 f i FaceCtrl.obj
 0001:000074c0       ?_Reserve@?$vector@PAVCGifImage@@V?$allocator@PAVCGifImage@@@std@@@std@@IAEXI@Z 004084c0 f i FaceCtrl.obj
 0001:00007570       ?_Tidy@?$vector@PAVCGifImage@@V?$allocator@PAVCGifImage@@@std@@@std@@IAEXXZ 00408570 f i FaceCtrl.obj
 0001:00007650       ?_Unused_capacity@?$vector@PAVCGifImage@@V?$allocator@PAVCGifImage@@@std@@@std@@QBEIXZ 00408650 f i FaceCtrl.obj
 0001:000076a0       ?_Xlen@?$vector@PAVCGifImage@@V?$allocator@PAVCGifImage@@@std@@@std@@IBEXXZ 004086a0 f i FaceCtrl.obj
 0001:00007700       ?allocate@?$_Wrap_alloc@V?$allocator@PAVCGifImage@@@std@@@std@@QAEPAPAVCGifImage@@I@Z 00408700 f i FaceCtrl.obj
 0001:00007760       ?allocate@?$_Wrap_alloc@V?$allocator@U_Container_proxy@std@@@std@@@std@@QAEPAU_Container_proxy@2@I@Z 00408760 f i FaceCtrl.obj
 0001:000077c0       ?allocate@?$allocator@PAVCGifImage@@@std@@QAEPAPAVCGifImage@@I@Z 004087c0 f i FaceCtrl.obj
 0001:00007820       ?allocate@?$allocator@U_Container_proxy@std@@@std@@QAEPAU_Container_proxy@2@I@Z 00408820 f i FaceCtrl.obj
 0001:00007880       ?c_str@?$basic_string@_WU?$char_traits@_W@std@@V?$allocator@_W@2@@std@@QBEPB_WXZ 00408880 f i FaceCtrl.obj
 0001:000078d0       ?capacity@?$vector@PAVCGifImage@@V?$allocator@PAVCGifImage@@@std@@@std@@QBEIXZ 004088d0 f i FaceCtrl.obj
 0001:00007920       ?clear@?$vector@PAVCGifImage@@V?$allocator@PAVCGifImage@@@std@@@std@@QAEXXZ 00408920 f i FaceCtrl.obj
 0001:000079b0       ?construct@?$allocator@PAVCGifImage@@@std@@QAEXPAPAVCGifImage@@ABQAV3@@Z 004089b0 f i FaceCtrl.obj
 0001:00007a50       ?deallocate@?$_Wrap_alloc@V?$allocator@PAVCGifImage@@@std@@@std@@QAEXPAPAVCGifImage@@I@Z 00408a50 f i FaceCtrl.obj
 0001:00007ab0       ?deallocate@?$_Wrap_alloc@V?$allocator@U_Container_proxy@std@@@std@@@std@@QAEXPAU_Container_proxy@2@I@Z 00408ab0 f i FaceCtrl.obj
 0001:00007b10       ?deallocate@?$allocator@PAVCGifImage@@@std@@QAEXPAPAVCGifImage@@I@Z 00408b10 f i FaceCtrl.obj
 0001:00007b70       ?deallocate@?$allocator@U_Container_proxy@std@@@std@@QAEXPAU_Container_proxy@2@I@Z 00408b70 f i FaceCtrl.obj
 0001:00007bd0       ?max_size@?$_Wrap_alloc@V?$allocator@PAVCGifImage@@@std@@@std@@QBEIXZ 00408bd0 f i FaceCtrl.obj
 0001:00007c30       ?max_size@?$allocator@PAVCGifImage@@@std@@QBEIXZ 00408c30 f i FaceCtrl.obj
 0001:00007c70       ?max_size@?$allocator_traits@V?$allocator@PAVCGifImage@@@std@@@std@@SAIABV?$allocator@PAVCGifImage@@@2@@Z 00408c70 f i FaceCtrl.obj
 0001:00007cc0       ?max_size@?$vector@PAVCGifImage@@V?$allocator@PAVCGifImage@@@std@@@std@@QBEIXZ 00408cc0 f i FaceCtrl.obj
 0001:00007d20       ?push_back@?$vector@PAVCGifImage@@V?$allocator@PAVCGifImage@@@std@@@std@@QAEXABQAVCGifImage@@@Z 00408d20 f i FaceCtrl.obj
 0001:00007eb0       ?size@?$vector@PAVCFaceInfo@@V?$allocator@PAVCFaceInfo@@@std@@@std@@QBEIXZ 00408eb0 f i FaceCtrl.obj
 0001:00007f00       ?size@?$vector@PAVCGifImage@@V?$allocator@PAVCGifImage@@@std@@@std@@QBEIXZ 00408f00 f i FaceCtrl.obj
 0001:00007f50       ??$?8V?$allocator@_W@std@@V01@@std@@YA_NABU?$_Wrap_alloc@V?$allocator@_W@std@@@0@0@Z 00408f50 f i FaceList.obj
 0001:00007fc0       ??$?8_W_W@std@@YA_NABV?$allocator@_W@0@0@Z 00408fc0 f i FaceList.obj
 0001:00007ff0       ??$?9V?$allocator@_W@std@@V01@@std@@YA_NABU?$_Wrap_alloc@V?$allocator@_W@std@@@0@0@Z 00408ff0 f i FaceList.obj
 0001:00008070       ??$?H_WU?$char_traits@_W@std@@V?$allocator@_W@1@@std@@YA?AV?$basic_string@_WU?$char_traits@_W@std@@V?$allocator@_W@2@@0@$$QAV10@0@Z 00409070 f i FaceList.obj
 0001:00008190       ??$_Allocate@PAVCFaceInfo@@@std@@YAPAPAVCFaceInfo@@IPAPAV1@@Z 00409190 f i FaceList.obj
 0001:00008230       ??$_Allocate@_W@std@@YAPA_WIPA_W@Z 00409230 f i FaceList.obj
 0001:000082c0       ??$_Debug_pointer@PAVCFaceInfo@@@std@@YAXPAPAVCFaceInfo@@PB_WI@Z 004092c0 f i FaceList.obj
 0001:00008330       ??$_Debug_pointer@_W@std@@YAXPB_W0I@Z 00409330 f i FaceList.obj
 0001:000083a0       ??$_Debug_range2@PAPAVCFaceInfo@@@std@@YAXPAPAVCFaceInfo@@0PB_WIUrandom_access_iterator_tag@0@@Z 004093a0 f i FaceList.obj
 0001:00008450       ??$_Debug_range@PAPAVCFaceInfo@@@std@@YAXPAPAVCFaceInfo@@0PB_WI@Z 00409450 f i FaceList.obj
 0001:000084d0       ??$_Destroy_range@U?$_Wrap_alloc@V?$allocator@PAVCFaceInfo@@@std@@@std@@@std@@YAXPAPAVCFaceInfo@@0AAU?$_Wrap_alloc@V?$allocator@PAVCFaceInfo@@@std@@@0@@Z 004094d0 f i FaceList.obj
 0001:00008550       ??$_Destroy_range@U?$_Wrap_alloc@V?$allocator@PAVCFaceInfo@@@std@@@std@@@std@@YAXPAPAVCFaceInfo@@0AAU?$_Wrap_alloc@V?$allocator@PAVCFaceInfo@@@std@@@0@U_Scalar_ptr_iterator_tag@0@@Z 00409550 f i FaceList.obj
 0001:00008580       ??$_Iter_cat@PAPAVCFaceInfo@@@std@@YA?AUrandom_access_iterator_tag@0@ABQAPAVCFaceInfo@@@Z 00409580 f i FaceList.obj
 0001:00008600       ??$_Ptr_cat@PAVCFaceInfo@@PAV1@@std@@YA?AU_Scalar_ptr_iterator_tag@0@PAPAVCFaceInfo@@0@Z 00409600 f i FaceList.obj
 0001:00008670       ??$_Rechecked@PAPAVCFaceInfo@@PAPAV1@@std@@YAAAPAPAVCFaceInfo@@AAPAPAV1@PAPAV1@@Z 00409670 f i FaceList.obj
 0001:000086b0       ??$_Umove@PAPAVCFaceInfo@@@?$vector@PAVCFaceInfo@@V?$allocator@PAVCFaceInfo@@@std@@@std@@IAEPAPAVCFaceInfo@@PAPAV2@00@Z 004096b0 f i FaceList.obj
 0001:00008760       ??$_Unchecked@PAPAVCFaceInfo@@@std@@YAPAPAVCFaceInfo@@PAPAV1@@Z 00409760 f i FaceList.obj
 0001:000087a0       ??$_Uninit_move@PAPAVCFaceInfo@@PAPAV1@U?$_Wrap_alloc@V?$allocator@PAVCFaceInfo@@@std@@@std@@@std@@YAPAPAVCFaceInfo@@PAPAV1@00AAU?$_Wrap_alloc@V?$allocator@PAVCFaceInfo@@@std@@@0@@Z 004097a0 f i FaceList.obj
 0001:00008840       ??$_Uninit_move@PAVCFaceInfo@@PAV1@PAV1@@std@@YAPAPAVCFaceInfo@@PAPAV1@00AAU?$_Wrap_alloc@V?$allocator@PAVCFaceInfo@@@std@@@0@0U_Scalar_ptr_iterator_tag@0@@Z 00409840 f i FaceList.obj
 0001:00008900       ??$_Uninitialized_move@PAPAVCFaceInfo@@PAPAV1@U?$_Wrap_alloc@V?$allocator@PAVCFaceInfo@@@std@@@std@@@std@@YAPAPAVCFaceInfo@@PAPAV1@00AAU?$_Wrap_alloc@V?$allocator@PAVCFaceInfo@@@std@@@0@@Z 00409900 f i FaceList.obj
 0001:000089a0       ??$_Val_type@PAPAVCFaceInfo@@@std@@YAPAPAVCFaceInfo@@PAPAV1@@Z 004099a0 f i FaceList.obj
 0001:000089d0       ??$addressof@QAVCFaceInfo@@@std@@YAPBQAVCFaceInfo@@ABQAV1@@Z 004099d0 f i FaceList.obj
 0001:00008a10       ??$assign@V?$_String_iterator@V?$_String_val@U?$_Simple_types@_W@std@@@std@@@std@@@?$basic_string@_WU?$char_traits@_W@std@@V?$allocator@_W@2@@std@@QAEAAV01@V?$_String_iterator@V?$_String_val@U?$_Simple_types@_W@std@@@std@@@1@0@Z 00409a10 f i FaceList.obj
 0001:00008c30       ??$construct@PAVCFaceInfo@@AAPAV1@@?$_Wrap_alloc@V?$allocator@PAVCFaceInfo@@@std@@@std@@QAEXPAPAVCFaceInfo@@AAPAV2@@Z 00409c30 f i FaceList.obj
 0001:00008ca0       ??$construct@PAVCFaceInfo@@AAPAV1@@?$allocator@PAVCFaceInfo@@@std@@QAEXPAPAVCFaceInfo@@AAPAV2@@Z 00409ca0 f i FaceList.obj
 0001:00008da0       ??$construct@PAVCFaceInfo@@AAPAV1@@?$allocator_traits@V?$allocator@PAVCFaceInfo@@@std@@@std@@SAXAAV?$allocator@PAVCFaceInfo@@@1@PAPAVCFaceInfo@@AAPAV3@@Z 00409da0 f i FaceList.obj
 0001:00008e00       ??$construct@PAVCFaceInfo@@ABQAV1@@?$_Wrap_alloc@V?$allocator@PAVCFaceInfo@@@std@@@std@@QAEXPAPAVCFaceInfo@@ABQAV2@@Z 00409e00 f i FaceList.obj
 0001:00008e70       ??$construct@PAVCFaceInfo@@ABQAV1@@?$allocator_traits@V?$allocator@PAVCFaceInfo@@@std@@@std@@SAXAAV?$allocator@PAVCFaceInfo@@@1@PAPAVCFaceInfo@@ABQAV3@@Z 00409e70 f i FaceList.obj
 0001:00008ed0       ??$construct@PA_WAAPA_W@?$_Wrap_alloc@V?$allocator@_W@std@@@std@@QAEXPAPA_WAAPA_W@Z 00409ed0 f i FaceList.obj
 0001:00008f40       ??$construct@PA_WAAPA_W@?$allocator@_W@std@@QAEXPAPA_WAAPA_W@Z 00409f40 f i FaceList.obj
 0001:00009040       ??$construct@PA_WAAPA_W@?$allocator_traits@V?$allocator@_W@std@@@std@@SAXAAV?$allocator@_W@1@PAPA_WAAPA_W@Z 0040a040 f i FaceList.obj
 0001:000090a0       ??$destroy@PA_W@?$_Wrap_alloc@V?$allocator@_W@std@@@std@@QAEXPAPA_W@Z 0040a0a0 f i FaceList.obj
 0001:00009100       ??$destroy@PA_W@?$allocator@_W@std@@QAEXPAPA_W@Z 0040a100 f i FaceList.obj
 0001:00009140       ??$destroy@PA_W@?$allocator_traits@V?$allocator@_W@std@@@std@@SAXAAV?$allocator@_W@1@PAPA_W@Z 0040a140 f i FaceList.obj
 0001:00009190       ??$forward@AAPAVCFaceInfo@@@std@@YAAAPAVCFaceInfo@@AAPAV1@@Z 0040a190 f i FaceList.obj
 0001:000091d0       ??$forward@AAPA_W@std@@YAAAPA_WAAPA_W@Z 0040a1d0 f i FaceList.obj
 0001:00009210       ??$forward@ABQAVCFaceInfo@@@std@@YAABQAVCFaceInfo@@ABQAV1@@Z 0040a210 f i FaceList.obj
 0001:00009250       ??$forward@V?$basic_string@_WU?$char_traits@_W@std@@V?$allocator@_W@2@@std@@@std@@YA$$QAV?$basic_string@_WU?$char_traits@_W@std@@V?$allocator@_W@2@@0@AAV10@@Z 0040a250 f i FaceList.obj
 0001:00009290       ??$move@AAV?$basic_string@_WU?$char_traits@_W@std@@V?$allocator@_W@2@@std@@@std@@YA$$QAV?$basic_string@_WU?$char_traits@_W@std@@V?$allocator@_W@2@@0@AAV10@@Z 0040a290 f i FaceList.obj
 0001:000092d0       ??0?$_Iterator012@Urandom_access_iterator_tag@std@@_WHPB_WAB_WU_Iterator_base12@2@@std@@QAE@ABU01@@Z 0040a2d0 f i FaceList.obj
 0001:00009330       ??0?$_Iterator012@Urandom_access_iterator_tag@std@@_WHPB_WAB_WU_Iterator_base12@2@@std@@QAE@XZ 0040a330 f i FaceList.obj
 0001:00009390       ??0?$_String_alloc@$0A@U?$_String_base_types@_WV?$allocator@_W@std@@@std@@@std@@QAE@ABV?$allocator@_W@1@@Z 0040a390 f i FaceList.obj
 0001:00009440       ??0?$_String_const_iterator@V?$_String_val@U?$_Simple_types@_W@std@@@std@@@std@@QAE@ABV01@@Z 0040a440 f i FaceList.obj
 0001:000094b0       ??0?$_String_const_iterator@V?$_String_val@U?$_Simple_types@_W@std@@@std@@@std@@QAE@PB_WPBU_Container_base12@1@@Z 0040a4b0 f i FaceList.obj
 0001:00009570       ??0?$_String_iterator@V?$_String_val@U?$_Simple_types@_W@std@@@std@@@std@@QAE@ABV01@@Z 0040a570 f i FaceList.obj
 0001:000095d0       ??0?$_String_iterator@V?$_String_val@U?$_Simple_types@_W@std@@@std@@@std@@QAE@PA_WPBU_Container_base12@1@@Z 0040a5d0 f i FaceList.obj
 0001:00009630       ??0?$_String_val@U?$_Simple_types@_W@std@@@std@@QAE@XZ 0040a630 f i FaceList.obj
 0001:000096b0       ??0?$_Vector_alloc@$0A@U?$_Vec_base_types@PAVCFaceInfo@@V?$allocator@PAVCFaceInfo@@@std@@@std@@@std@@QAE@ABV?$allocator@PAVCFaceInfo@@@1@@Z 0040a6b0 f i FaceList.obj
 0001:00009760       ??0?$_Vector_val@U?$_Simple_types@PAVCFaceInfo@@@std@@@std@@QAE@XZ 0040a760 f i FaceList.obj
 0001:000097f0       ??0?$_Wrap_alloc@V?$allocator@PAVCFaceInfo@@@std@@@std@@QAE@XZ 0040a7f0 f i FaceList.obj
 0001:00009850       ??0?$_Wrap_alloc@V?$allocator@_W@std@@@std@@QAE@XZ 0040a850 f i FaceList.obj
 0001:000098b0       ??0?$allocator@PAVCFaceInfo@@@std@@QAE@XZ 0040a8b0 f i FaceList.obj
 0001:000098f0       ??0?$allocator@_W@std@@QAE@ABV01@@Z 0040a8f0 f i FaceList.obj
 0001:00009930       ??0?$allocator@_W@std@@QAE@XZ 0040a930 f i FaceList.obj
 0001:00009970       ??0?$basic_string@_WU?$char_traits@_W@std@@V?$allocator@_W@2@@std@@QAE@$$QAV01@@Z 0040a970 f i FaceList.obj
 0001:00009a10       ??0?$basic_string@_WU?$char_traits@_W@std@@V?$allocator@_W@2@@std@@QAE@XZ 0040aa10 f i FaceList.obj
 0001:00009ad0       ??0?$vector@PAVCFaceInfo@@V?$allocator@PAVCFaceInfo@@@std@@@std@@QAE@XZ 0040aad0 f i FaceList.obj
 0001:00009b40       ??0CFaceInfo@@QAE@XZ       0040ab40 f   FaceList.obj
 0001:00009c30       ??0CFaceList@@QAE@XZ       0040ac30 f   FaceList.obj
 0001:00009ce0       ??0_Iterator_base12@std@@QAE@ABU01@@Z 0040ace0 f i FaceList.obj
 0001:00009d60       ??0_Iterator_base12@std@@QAE@XZ 0040ad60 f i FaceList.obj
 0001:00009db0       ??1?$_Iterator012@Urandom_access_iterator_tag@std@@_WHPB_WAB_WU_Iterator_base12@2@@std@@QAE@XZ 0040adb0 f i FaceList.obj
 0001:00009e00       ??1?$_String_alloc@$0A@U?$_String_base_types@_WV?$allocator@_W@std@@@std@@@std@@QAE@XZ 0040ae00 f i FaceList.obj
 0001:00009e60       ??1?$_String_const_iterator@V?$_String_val@U?$_Simple_types@_W@std@@@std@@@std@@QAE@XZ 0040ae60 f i FaceList.obj
 0001:00009eb0       ??1?$_String_iterator@V?$_String_val@U?$_Simple_types@_W@std@@@std@@@std@@QAE@XZ 0040aeb0 f i FaceList.obj
 0001:00009f00       ??1?$_String_val@U?$_Simple_types@_W@std@@@std@@QAE@XZ 0040af00 f i FaceList.obj
 0001:00009f60       ??1?$_Vector_alloc@$0A@U?$_Vec_base_types@PAVCFaceInfo@@V?$allocator@PAVCFaceInfo@@@std@@@std@@@std@@QAE@XZ 0040af60 f i FaceList.obj
 0001:00009fc0       ??1?$_Vector_val@U?$_Simple_types@PAVCFaceInfo@@@std@@@std@@QAE@XZ 0040afc0 f i FaceList.obj
 0001:0000a020       ??1?$basic_string@_WU?$char_traits@_W@std@@V?$allocator@_W@2@@std@@QAE@XZ 0040b020 f i FaceList.obj
 0001:0000a080       ??1?$vector@PAVCFaceInfo@@V?$allocator@PAVCFaceInfo@@@std@@@std@@QAE@XZ 0040b080 f i FaceList.obj
 0001:0000a0e0       ??1CFaceInfo@@QAE@XZ       0040b0e0 f   FaceList.obj
 0001:0000a140       ??1CFaceList@@QAE@XZ       0040b140 f   FaceList.obj
 0001:0000a1f0       ??1_Iterator_base12@std@@QAE@XZ 0040b1f0 f i FaceList.obj
 0001:0000a2b0       ??4?$basic_string@_WU?$char_traits@_W@std@@V?$allocator@_W@2@@std@@QAEAAV01@$$QAV01@@Z 0040b2b0 f i FaceList.obj
 0001:0000a3d0       ??4?$basic_string@_WU?$char_traits@_W@std@@V?$allocator@_W@2@@std@@QAEAAV01@PB_W@Z 0040b3d0 f i FaceList.obj
 0001:0000a430       ??4_Iterator_base12@std@@QAEAAU01@ABU01@@Z 0040b430 f i FaceList.obj
 0001:0000a570       ??8?$_String_const_iterator@V?$_String_val@U?$_Simple_types@_W@std@@@std@@@std@@QBE_NABV01@@Z 0040b570 f i FaceList.obj
 0001:0000a600       ??D?$_String_const_iterator@V?$_String_val@U?$_Simple_types@_W@std@@@std@@@std@@QBEAB_WXZ 0040b600 f i FaceList.obj
 0001:0000a750       ??D?$_String_iterator@V?$_String_val@U?$_Simple_types@_W@std@@@std@@@std@@QBEAA_WXZ 0040b750 f i FaceList.obj
 0001:0000a7a0       ??G?$_String_const_iterator@V?$_String_val@U?$_Simple_types@_W@std@@@std@@@std@@QBEHABV01@@Z 0040b7a0 f i FaceList.obj
 0001:0000a810       ??G?$_String_iterator@V?$_String_val@U?$_Simple_types@_W@std@@@std@@@std@@QBEHABV?$_String_const_iterator@V?$_String_val@U?$_Simple_types@_W@std@@@std@@@1@@Z 0040b810 f i FaceList.obj
 0001:0000a900       ??_GCFaceInfo@@QAEPAXI@Z   0040b900 f i FaceList.obj
 0001:0000a970       ?GetFaceInfo@CFaceList@@QAEPAVCFaceInfo@@H@Z 0040b970 f   FaceList.obj
 0001:0000aa00       ?GetFaceInfoById@CFaceList@@QAEPAVCFaceInfo@@H@Z 0040ba00 f   FaceList.obj
 0001:0000aab0       ?GetFaceInfoByIndex@CFaceList@@QAEPAVCFaceInfo@@H@Z 0040bab0 f   FaceList.obj
 0001:0000ab60       ?LoadConfigFile@CFaceList@@QAEHPB_W@Z 0040bb60 f   FaceList.obj
 0001:0000b0d0       ?Reset@CFaceList@@QAEXXZ   0040c0d0 f   FaceList.obj
 0001:0000b210       ?_Adopt@_Iterator_base12@std@@QAEXPBU_Container_base12@2@@Z 0040c210 f i FaceList.obj
 0001:0000b3c0       ?_Alloc_proxy@?$_String_alloc@$0A@U?$_String_base_types@_WV?$allocator@_W@std@@@std@@@std@@QAEXXZ 0040c3c0 f i FaceList.obj
 0001:0000b490       ?_Alloc_proxy@?$_Vector_alloc@$0A@U?$_Vec_base_types@PAVCFaceInfo@@V?$allocator@PAVCFaceInfo@@@std@@@std@@@std@@QAEXXZ 0040c490 f i FaceList.obj
 0001:0000b560       ?_Assign_rv@?$basic_string@_WU?$char_traits@_W@std@@V?$allocator@_W@2@@std@@QAEX$$QAV12@@Z 0040c560 f i FaceList.obj
 0001:0000b650       ?_Change_alloc@?$_String_alloc@$0A@U?$_String_base_types@_WV?$allocator@_W@std@@@std@@@std@@QAEXABU?$_Wrap_alloc@V?$allocator@_W@std@@@2@@Z 0040c650 f i FaceList.obj
 0001:0000b690       ?_Compat@?$_String_const_iterator@V?$_String_val@U?$_Simple_types@_W@std@@@std@@@std@@QBEXABV12@@Z 0040c690 f i FaceList.obj
 0001:0000b7b0       ?_Copy@?$basic_string@_WU?$char_traits@_W@std@@V?$allocator@_W@2@@std@@QAEXII@Z 0040c7b0 f i FaceList.obj
 0001:0000ba70       ?_Destroy@?$vector@PAVCFaceInfo@@V?$allocator@PAVCFaceInfo@@@std@@@std@@IAEXPAPAVCFaceInfo@@0@Z 0040ca70 f i FaceList.obj
 0001:0000bb20       ?_Eos@?$basic_string@_WU?$char_traits@_W@std@@V?$allocator@_W@2@@std@@QAEXI@Z 0040cb20 f i FaceList.obj
 0001:0000bbb0       ?_Free_proxy@?$_String_alloc@$0A@U?$_String_base_types@_WV?$allocator@_W@std@@@std@@@std@@QAEXXZ 0040cbb0 f i FaceList.obj
 0001:0000bc90       ?_Free_proxy@?$_Vector_alloc@$0A@U?$_Vec_base_types@PAVCFaceInfo@@V?$allocator@PAVCFaceInfo@@@std@@@std@@@std@@QAEXXZ 0040cc90 f i FaceList.obj
 0001:0000bd70       ?_Getal@?$_String_alloc@$0A@U?$_String_base_types@_WV?$allocator@_W@std@@@std@@@std@@QBE?AU?$_Wrap_alloc@V?$allocator@_W@std@@@2@XZ 0040cd70 f i FaceList.obj
 0001:0000bdd0       ?_Getal@?$_Vector_alloc@$0A@U?$_Vec_base_types@PAVCFaceInfo@@V?$allocator@PAVCFaceInfo@@@std@@@std@@@std@@QBE?AU?$_Wrap_alloc@V?$allocator@PAVCFaceInfo@@@std@@@2@XZ 0040cdd0 f i FaceList.obj
 0001:0000be30       ?_Getcont@_Iterator_base12@std@@QBEPBU_Container_base12@2@XZ 0040ce30 f i FaceList.obj
 0001:0000bea0       ?_Grow@?$basic_string@_WU?$char_traits@_W@std@@V?$allocator@_W@2@@std@@QAE_NI_N@Z 0040cea0 f i FaceList.obj
 0001:0000bfc0       ?_Grow_to@?$vector@PAVCFaceInfo@@V?$allocator@PAVCFaceInfo@@@std@@@std@@IBEII@Z 0040cfc0 f i FaceList.obj
 0001:0000c070       ?_Inside@?$basic_string@_WU?$char_traits@_W@std@@V?$allocator@_W@2@@std@@QAE_NPB_W@Z 0040d070 f i FaceList.obj
 0001:0000c100       ?_Inside@?$vector@PAVCFaceInfo@@V?$allocator@PAVCFaceInfo@@@std@@@std@@IBE_NPBQAVCFaceInfo@@@Z 0040d100 f i FaceList.obj
 0001:0000c180       ?_Myptr@?$_String_val@U?$_Simple_types@_W@std@@@std@@QAEPA_WXZ 0040d180 f i FaceList.obj
 0001:0000c210       ?_Orphan_me@_Iterator_base12@std@@QAEXXZ 0040d210 f i FaceList.obj
 0001:0000c2e0       ?_Orphan_range@?$vector@PAVCFaceInfo@@V?$allocator@PAVCFaceInfo@@@std@@@std@@IBEXPAPAVCFaceInfo@@0@Z 0040d2e0 f i FaceList.obj
 0001:0000c460       ?_Pdif@?$basic_string@_WU?$char_traits@_W@std@@V?$allocator@_W@2@@std@@SAIV?$_String_const_iterator@V?$_String_val@U?$_Simple_types@_W@std@@@std@@@2@0@Z 0040d460 f i FaceList.obj
 0001:0000c550       ?_Reallocate@?$vector@PAVCFaceInfo@@V?$allocator@PAVCFaceInfo@@@std@@@std@@IAEXI@Z 0040d550 f i FaceList.obj
 0001:0000c730       ?_Reserve@?$vector@PAVCFaceInfo@@V?$allocator@PAVCFaceInfo@@@std@@@std@@IAEXI@Z 0040d730 f i FaceList.obj
 0001:0000c7e0       ?_Tidy@?$basic_string@_WU?$char_traits@_W@std@@V?$allocator@_W@2@@std@@QAEX_NI@Z 0040d7e0 f i FaceList.obj
 0001:0000c8f0       ?_Tidy@?$vector@PAVCFaceInfo@@V?$allocator@PAVCFaceInfo@@@std@@@std@@IAEXXZ 0040d8f0 f i FaceList.obj
 0001:0000c9d0       ?_Unused_capacity@?$vector@PAVCFaceInfo@@V?$allocator@PAVCFaceInfo@@@std@@@std@@QBEIXZ 0040d9d0 f i FaceList.obj
 0001:0000ca20       ?_Xlen@?$basic_string@_WU?$char_traits@_W@std@@V?$allocator@_W@2@@std@@QBEXXZ 0040da20 f i FaceList.obj
 0001:0000ca80       ?_Xlen@?$vector@PAVCFaceInfo@@V?$allocator@PAVCFaceInfo@@@std@@@std@@IBEXXZ 0040da80 f i FaceList.obj
 0001:0000cae0       ?_Xran@?$basic_string@_WU?$char_traits@_W@std@@V?$allocator@_W@2@@std@@QBEXXZ 0040dae0 f i FaceList.obj
 0001:0000cb40       ?allocate@?$_Wrap_alloc@V?$allocator@PAVCFaceInfo@@@std@@@std@@QAEPAPAVCFaceInfo@@I@Z 0040db40 f i FaceList.obj
 0001:0000cba0       ?allocate@?$_Wrap_alloc@V?$allocator@_W@std@@@std@@QAEPA_WI@Z 0040dba0 f i FaceList.obj
 0001:0000cc00       ?allocate@?$allocator@PAVCFaceInfo@@@std@@QAEPAPAVCFaceInfo@@I@Z 0040dc00 f i FaceList.obj
 0001:0000cc60       ?allocate@?$allocator@_W@std@@QAEPA_WI@Z 0040dc60 f i FaceList.obj
 0001:0000ccc0       ?append@?$basic_string@_WU?$char_traits@_W@std@@V?$allocator@_W@2@@std@@QAEAAV12@ABV12@@Z 0040dcc0 f i FaceList.obj
 0001:0000cd20       ?append@?$basic_string@_WU?$char_traits@_W@std@@V?$allocator@_W@2@@std@@QAEAAV12@ABV12@II@Z 0040dd20 f i FaceList.obj
 0001:0000ce40       ?assign@?$basic_string@_WU?$char_traits@_W@std@@V?$allocator@_W@2@@std@@QAEAAV12@ABV12@II@Z 0040de40 f i FaceList.obj
 0001:0000cf50       ?assign@?$basic_string@_WU?$char_traits@_W@std@@V?$allocator@_W@2@@std@@QAEAAV12@PB_W@Z 0040df50 f i FaceList.obj
 0001:0000cfe0       ?assign@?$basic_string@_WU?$char_traits@_W@std@@V?$allocator@_W@2@@std@@QAEAAV12@PB_WI@Z 0040dfe0 f i FaceList.obj
 0001:0000d0e0       ?assign@?$char_traits@_W@std@@SAXAA_WAB_W@Z 0040e0e0 f i FaceList.obj
 0001:0000d120       ?begin@?$basic_string@_WU?$char_traits@_W@std@@V?$allocator@_W@2@@std@@QAE?AV?$_String_iterator@V?$_String_val@U?$_Simple_types@_W@std@@@std@@@2@XZ 0040e120 f i FaceList.obj
 0001:0000d190       ?capacity@?$basic_string@_WU?$char_traits@_W@std@@V?$allocator@_W@2@@std@@QBEIXZ 0040e190 f i FaceList.obj
 0001:0000d1d0       ?capacity@?$vector@PAVCFaceInfo@@V?$allocator@PAVCFaceInfo@@@std@@@std@@QBEIXZ 0040e1d0 f i FaceList.obj
 0001:0000d220       ?clear@?$vector@PAVCFaceInfo@@V?$allocator@PAVCFaceInfo@@@std@@@std@@QAEXXZ 0040e220 f i FaceList.obj
 0001:0000d2b0       ?construct@?$allocator@PAVCFaceInfo@@@std@@QAEXPAPAVCFaceInfo@@ABQAV3@@Z 0040e2b0 f i FaceList.obj
 0001:0000d350       ?copy@?$char_traits@_W@std@@SAPA_WPA_WPB_WI@Z 0040e350 f i FaceList.obj
 0001:0000d3d0       ?deallocate@?$_Wrap_alloc@V?$allocator@PAVCFaceInfo@@@std@@@std@@QAEXPAPAVCFaceInfo@@I@Z 0040e3d0 f i FaceList.obj
 0001:0000d430       ?deallocate@?$_Wrap_alloc@V?$allocator@_W@std@@@std@@QAEXPA_WI@Z 0040e430 f i FaceList.obj
 0001:0000d490       ?deallocate@?$allocator@PAVCFaceInfo@@@std@@QAEXPAPAVCFaceInfo@@I@Z 0040e490 f i FaceList.obj
 0001:0000d4f0       ?deallocate@?$allocator@_W@std@@QAEXPA_WI@Z 0040e4f0 f i FaceList.obj
 0001:0000d550       ?end@?$basic_string@_WU?$char_traits@_W@std@@V?$allocator@_W@2@@std@@QAE?AV?$_String_iterator@V?$_String_val@U?$_Simple_types@_W@std@@@std@@@2@XZ 0040e550 f i FaceList.obj
 0001:0000d5c0       ?erase@?$basic_string@_WU?$char_traits@_W@std@@V?$allocator@_W@2@@std@@QAEAAV12@I@Z 0040e5c0 f i FaceList.obj
 0001:0000d640       ?erase@?$basic_string@_WU?$char_traits@_W@std@@V?$allocator@_W@2@@std@@QAEAAV12@II@Z 0040e640 f i FaceList.obj
 0001:0000d730       ?insert@?$basic_string@_WU?$char_traits@_W@std@@V?$allocator@_W@2@@std@@QAEAAV12@IABV12@@Z 0040e730 f i FaceList.obj
 0001:0000d790       ?insert@?$basic_string@_WU?$char_traits@_W@std@@V?$allocator@_W@2@@std@@QAEAAV12@IABV12@II@Z 0040e790 f i FaceList.obj
 0001:0000d970       ?length@?$char_traits@_W@std@@SAIPB_W@Z 0040e970 f i FaceList.obj
 0001:0000da00       ?max_size@?$_Wrap_alloc@V?$allocator@PAVCFaceInfo@@@std@@@std@@QBEIXZ 0040ea00 f i FaceList.obj
 0001:0000da60       ?max_size@?$_Wrap_alloc@V?$allocator@_W@std@@@std@@QBEIXZ 0040ea60 f i FaceList.obj
 0001:0000dac0       ?max_size@?$allocator@PAVCFaceInfo@@@std@@QBEIXZ 0040eac0 f i FaceList.obj
 0001:0000db00       ?max_size@?$allocator@_W@std@@QBEIXZ 0040eb00 f i FaceList.obj
 0001:0000db40       ?max_size@?$allocator_traits@V?$allocator@PAVCFaceInfo@@@std@@@std@@SAIABV?$allocator@PAVCFaceInfo@@@2@@Z 0040eb40 f i FaceList.obj
 0001:0000db90       ?max_size@?$allocator_traits@V?$allocator@_W@std@@@std@@SAIABV?$allocator@_W@2@@Z 0040eb90 f i FaceList.obj
 0001:0000dbe0       ?max_size@?$basic_string@_WU?$char_traits@_W@std@@V?$allocator@_W@2@@std@@QBEIXZ 0040ebe0 f i FaceList.obj
 0001:0000dc80       ?max_size@?$vector@PAVCFaceInfo@@V?$allocator@PAVCFaceInfo@@@std@@@std@@QBEIXZ 0040ec80 f i FaceList.obj
 0001:0000dce0       ?move@?$char_traits@_W@std@@SAPA_WPA_WPB_WI@Z 0040ece0 f i FaceList.obj
 0001:0000dd60       ?push_back@?$vector@PAVCFaceInfo@@V?$allocator@PAVCFaceInfo@@@std@@@std@@QAEXABQAVCFaceInfo@@@Z 0040ed60 f i FaceList.obj
 0001:0000def0       ?replace@?$basic_string@_WU?$char_traits@_W@std@@V?$allocator@_W@2@@std@@QAEAAV12@IIABV12@II@Z 0040eef0 f i FaceList.obj
 0001:0000e310       ?replace@?$basic_string@_WU?$char_traits@_W@std@@V?$allocator@_W@2@@std@@QAEAAV12@IIPB_WI@Z 0040f310 f i FaceList.obj
 0001:0000e550       ?replace@?$basic_string@_WU?$char_traits@_W@std@@V?$allocator@_W@2@@std@@QAEAAV12@V?$_String_const_iterator@V?$_String_val@U?$_Simple_types@_W@std@@@std@@@2@0V?$_String_iterator@V?$_String_val@U?$_Simple_types@_W@std@@@std@@@2@1@Z 0040f550 f i FaceList.obj
 0001:0000e8e0       ?size@?$basic_string@_WU?$char_traits@_W@std@@V?$allocator@_W@2@@std@@QBEIXZ 0040f8e0 f i FaceList.obj
 0001:0000e920       _wmemcpy                   0040f920 f i FaceList.obj
 0001:0000e980       _wmemmove                  0040f980 f i FaceList.obj
 0001:0000e9f0       ??0?$_Wrap_alloc@V?$allocator@_W@std@@@std@@QAE@ABV?$allocator@_W@1@@Z 0040f9f0 f i FaceSelDlg.obj
 0001:0000ea50       ??0?$basic_string@_WU?$char_traits@_W@std@@V?$allocator@_W@2@@std@@QAE@ABV01@@Z 0040fa50 f i FaceSelDlg.obj
 0001:0000eb40       ??0CFaceSelDlg@@QAE@XZ     0040fb40 f   FaceSelDlg.obj
 0001:0000ec70       ??1CFaceSelDlg@@UAE@XZ     0040fc70 f   FaceSelDlg.obj
 0001:0000ed10       ??4?$basic_string@_WU?$char_traits@_W@std@@V?$allocator@_W@2@@std@@QAEAAV01@ABV01@@Z 0040fd10 f i FaceSelDlg.obj
 0001:0000ede0       ??_ECFaceSelDlg@@UAEPAXI@Z 0040fde0 f i FaceSelDlg.obj
 0001:0000ede0       ??_GCFaceSelDlg@@UAEPAXI@Z 0040fde0 f i FaceSelDlg.obj
 0001:0000ee50       ?CreateControl@CFaceSelDlg@@UAEPAVCControlUI@DuiLib@@PB_W@Z 0040fe50 f   FaceSelDlg.obj
 0001:0000ef70       ?GetSelFaceFileName@CFaceSelDlg@@QAE?AV?$basic_string@_WU?$char_traits@_W@std@@V?$allocator@_W@2@@std@@XZ 0040ff70 f   FaceSelDlg.obj
 0001:0000eff0       ?GetSelFaceId@CFaceSelDlg@@QAEHXZ 0040fff0 f   FaceSelDlg.obj
 0001:0000f030       ?GetSelFaceIndex@CFaceSelDlg@@QAEHXZ 00410030 f   FaceSelDlg.obj
 0001:0000f070       ?GetSkinFile@CFaceSelDlg@@UAE?AVCStdString@DuiLib@@XZ 00410070 f   FaceSelDlg.obj
 0001:0000f100       ?GetSkinFolder@CFaceSelDlg@@UAE?AVCStdString@DuiLib@@XZ 00410100 f   FaceSelDlg.obj
 0001:0000f240       ?GetWindowClassName@CFaceSelDlg@@UBEPB_WXZ 00410240 f   FaceSelDlg.obj
 0001:0000f280       ?HandleCustomMessage@CFaceSelDlg@@UAEJIIJAAH@Z 00410280 f   FaceSelDlg.obj
 0001:0000f2c0       ?HandleMessage@CFaceSelDlg@@UAEJIIJ@Z 004102c0 f   FaceSelDlg.obj
 0001:0000f3d0       ?Init@CFaceSelDlg@@UAEXXZ  004103d0 f   FaceSelDlg.obj
 0001:0000f540       ?Notify@CFaceSelDlg@@MAEXAAUtagTNotifyUI@DuiLib@@@Z 00410540 f   FaceSelDlg.obj
 0001:0000f660       ?OnFinalMessage@CFaceSelDlg@@UAEXPAUHWND__@@@Z 00410660 f   FaceSelDlg.obj
 0001:0000f6c0       ?ResponseDefaultKeyEvent@CFaceSelDlg@@UAEJI@Z 004106c0 f   FaceSelDlg.obj
 0001:0000f720       ?SetFaceList@CFaceSelDlg@@QAEXPAVCFaceList@@@Z 00410720 f   FaceSelDlg.obj
 0001:0000f770       ?assign@?$basic_string@_WU?$char_traits@_W@std@@V?$allocator@_W@2@@std@@QAEAAV12@ABV12@@Z 00410770 f i FaceSelDlg.obj
 0001:0000f7d0       ?select_on_container_copy_construction@?$_Wrap_alloc@V?$allocator@_W@std@@@std@@QBE?AU12@XZ 004107d0 f i FaceSelDlg.obj
 0001:0000f840       ?select_on_container_copy_construction@?$allocator@_W@std@@QBE?AV12@XZ 00410840 f i FaceSelDlg.obj
 0001:0000f8a0       ?select_on_container_copy_construction@?$allocator_traits@V?$allocator@_W@std@@@std@@SA?AV?$allocator@_W@2@ABV32@@Z 004108a0 f i FaceSelDlg.obj
 0001:0000f900       ??$?8_WU?$char_traits@_W@std@@V?$allocator@_W@1@@std@@YA_NABV?$basic_string@_WU?$char_traits@_W@std@@V?$allocator@_W@2@@0@PB_W@Z 00410900 f i FileDialogEx.obj
 0001:0000f980       ??$?9_WU?$char_traits@_W@std@@V?$allocator@_W@1@@std@@YA_NABV?$basic_string@_WU?$char_traits@_W@std@@V?$allocator@_W@2@@0@PB_W@Z 00410980 f i FileDialogEx.obj
 0001:0000fa00       ??$?H_WU?$char_traits@_W@std@@V?$allocator@_W@1@@std@@YA?AV?$basic_string@_WU?$char_traits@_W@std@@V?$allocator@_W@2@@0@ABV10@0@Z 00410a00 f i FileDialogEx.obj
 0001:0000fb60       ??0?$basic_string@_WU?$char_traits@_W@std@@V?$allocator@_W@2@@std@@QAE@ABV01@IIABV?$allocator@_W@1@@Z 00410b60 f i FileDialogEx.obj
 0001:0000fc30       ??0?$basic_string@_WU?$char_traits@_W@std@@V?$allocator@_W@2@@std@@QAE@PB_W@Z 00410c30 f i FileDialogEx.obj
 0001:0000fd00       ??0CFileDialogEx@@QAE@XZ   00410d00 f   FileDialogEx.obj
 0001:0000fe20       ??1CFileDialogEx@@QAE@XZ   00410e20 f   FileDialogEx.obj
 0001:0000feb0       ??Y?$basic_string@_WU?$char_traits@_W@std@@V?$allocator@_W@2@@std@@QAEAAV01@ABV01@@Z 00410eb0 f i FileDialogEx.obj
 0001:0000ff10       ??Y?$basic_string@_WU?$char_traits@_W@std@@V?$allocator@_W@2@@std@@QAEAAV01@PB_W@Z 00410f10 f i FileDialogEx.obj
 0001:0000ff70       ?GetFileExt@CFileDialogEx@@QAE?AV?$basic_string@_WU?$char_traits@_W@std@@V?$allocator@_W@2@@std@@XZ 00410f70 f   FileDialogEx.obj
 0001:0000fff0       ?GetFileName@CFileDialogEx@@QAE?AV?$basic_string@_WU?$char_traits@_W@std@@V?$allocator@_W@2@@std@@XZ 00410ff0 f   FileDialogEx.obj
 0001:00010070       ?GetFileTitleW@CFileDialogEx@@QAE?AV?$basic_string@_WU?$char_traits@_W@std@@V?$allocator@_W@2@@std@@XZ 00411070 f   FileDialogEx.obj
 0001:000100f0       ?GetFolderPath@CFileDialogEx@@QAE?AV?$basic_string@_WU?$char_traits@_W@std@@V?$allocator@_W@2@@std@@XZ 004110f0 f   FileDialogEx.obj
 0001:00010170       ?GetNextPathName@CFileDialogEx@@QAE?AV?$basic_string@_WU?$char_traits@_W@std@@V?$allocator@_W@2@@std@@AAPAU__POSITION@@@Z 00411170 f   FileDialogEx.obj
 0001:00010500       ?GetPathName@CFileDialogEx@@QAE?AV?$basic_string@_WU?$char_traits@_W@std@@V?$allocator@_W@2@@std@@XZ 00411500 f   FileDialogEx.obj
 0001:00010580       ?GetStartPosition@CFileDialogEx@@QAEPAU__POSITION@@XZ 00411580 f   FileDialogEx.obj
 0001:000105c0       ?SetDefExt@CFileDialogEx@@QAEXPB_W@Z 004115c0 f   FileDialogEx.obj
 0001:00010630       ?SetFileName@CFileDialogEx@@QAEXPB_W@Z 00411630 f   FileDialogEx.obj
 0001:000106b0       ?SetFileNameBufferSize@CFileDialogEx@@QAEXK@Z 004116b0 f   FileDialogEx.obj
 0001:00010820       ?SetFilter@CFileDialogEx@@QAEXPB_W@Z 00411820 f   FileDialogEx.obj
 0001:00010910       ?SetFlags@CFileDialogEx@@QAEXK@Z 00411910 f   FileDialogEx.obj
 0001:00010960       ?SetMultiSel@CFileDialogEx@@QAEXH@Z 00411960 f   FileDialogEx.obj
 0001:000109d0       ?SetParentWnd@CFileDialogEx@@QAEXPAUHWND__@@@Z 004119d0 f   FileDialogEx.obj
 0001:00010a20       ?SetTitle@CFileDialogEx@@QAEXPB_W@Z 00411a20 f   FileDialogEx.obj
 0001:00010a70       ?ShowOpenFileDlg@CFileDialogEx@@QAEHXZ 00411a70 f   FileDialogEx.obj
 0001:00010ad0       ?ShowSaveFileDlg@CFileDialogEx@@QAEHXZ 00411ad0 f   FileDialogEx.obj
 0001:00010b30       ?append@?$basic_string@_WU?$char_traits@_W@std@@V?$allocator@_W@2@@std@@QAEAAV12@PB_W@Z 00411b30 f i FileDialogEx.obj
 0001:00010bc0       ?append@?$basic_string@_WU?$char_traits@_W@std@@V?$allocator@_W@2@@std@@QAEAAV12@PB_WI@Z 00411bc0 f i FileDialogEx.obj
 0001:00010d00       ?compare@?$basic_string@_WU?$char_traits@_W@std@@V?$allocator@_W@2@@std@@QBEHIIPB_WI@Z 00411d00 f i FileDialogEx.obj
 0001:00010e70       ?compare@?$basic_string@_WU?$char_traits@_W@std@@V?$allocator@_W@2@@std@@QBEHPB_W@Z 00411e70 f i FileDialogEx.obj
 0001:00010f00       ?compare@?$char_traits@_W@std@@SAHPB_W0I@Z 00411f00 f i FileDialogEx.obj
 0001:00010f80       ?get_allocator@?$basic_string@_WU?$char_traits@_W@std@@V?$allocator@_W@2@@std@@QBE?AV?$allocator@_W@2@XZ 00411f80 f i FileDialogEx.obj
 0001:00010ff0       ?length@?$basic_string@_WU?$char_traits@_W@std@@V?$allocator@_W@2@@std@@QBEIXZ 00411ff0 f i FileDialogEx.obj
 0001:00011030       ?reserve@?$basic_string@_WU?$char_traits@_W@std@@V?$allocator@_W@2@@std@@QAEXI@Z 00412030 f i FileDialogEx.obj
 0001:000110d0       ?substr@?$basic_string@_WU?$char_traits@_W@std@@V?$allocator@_W@2@@std@@QBE?AV12@II@Z 004120d0 f i FileDialogEx.obj
 0001:00011170       __wcsinc                   00412170 f i FileDialogEx.obj
 0001:000111b0       _wmemcmp                   004121b0 f i FileDialogEx.obj
 0001:00011260       ??0CGifImage@@QAE@XZ       00412260 f   GifImage.obj
 0001:000112d0       ??0Graphics@Gdiplus@@QAE@PAUHDC__@@@Z 004122d0 f i GifImage.obj
 0001:00011390       ??0Image@Gdiplus@@IAE@PAVGpImage@1@W4Status@1@@Z 00412390 f i GifImage.obj
 0001:00011400       ??0Image@Gdiplus@@QAE@PB_WH@Z 00412400 f i GifImage.obj
 0001:000114b0       ??0Rect@Gdiplus@@QAE@HHHH@Z 004124b0 f i GifImage.obj
 0001:00011520       ??1CGifImage@@QAE@XZ       00412520 f   GifImage.obj
 0001:00011570       ??1Graphics@Gdiplus@@QAE@XZ 00412570 f i GifImage.obj
 0001:000115d0       ??1Image@Gdiplus@@UAE@XZ   004125d0 f i GifImage.obj
 0001:00011630       ??2GdiplusBase@Gdiplus@@SAPAXI@Z 00412630 f i GifImage.obj
 0001:00011680       ??3GdiplusBase@Gdiplus@@SAXPAX@Z 00412680 f i GifImage.obj
 0001:000116d0       ??_GImage@Gdiplus@@UAEPAXI@Z 004126d0 f i GifImage.obj
 0001:000116d0       ??_EImage@Gdiplus@@UAEPAXI@Z 004126d0 f i GifImage.obj
 0001:00011740       ?ActiveNextFrame@CGifImage@@QAEXXZ 00412740 f   GifImage.obj
 0001:00011870       ?Clone@Image@Gdiplus@@UAEPAV12@XZ 00412870 f i GifImage.obj
 0001:000119d0       ?Destroy@CGifImage@@QAEXXZ 004129d0 f   GifImage.obj
 0001:00011ae0       ?Draw@CGifImage@@QAEHPAUHDC__@@ABUtagRECT@@H@Z 00412ae0 f   GifImage.obj
 0001:00011cb0       ?Draw@CGifImage@@QAEHPAUHDC__@@HHH@Z 00412cb0 f   GifImage.obj
 0001:00011e10       ?DrawImage@Graphics@Gdiplus@@QAE?AW4Status@2@PAVImage@2@ABVRect@2@@Z 00412e10 f i GifImage.obj
 0001:00011e90       ?DrawImage@Graphics@Gdiplus@@QAE?AW4Status@2@PAVImage@2@HH@Z 00412e90 f i GifImage.obj
 0001:00011f30       ?DrawImage@Graphics@Gdiplus@@QAE?AW4Status@2@PAVImage@2@HHHH@Z 00412f30 f i GifImage.obj
 0001:00011fe0       ?GetCurFramePos@CGifImage@@QAEIXZ 00412fe0 f   GifImage.obj
 0001:00012020       ?GetEncoderClsidByExtension@CGifImage@@AAE?AU_GUID@@PB_W@Z 00413020 f   GifImage.obj
 0001:000124e0       ?GetFrameCount@CGifImage@@QAEIXZ 004134e0 f   GifImage.obj
 0001:00012520       ?GetFrameCount@Image@Gdiplus@@QAEIPBU_GUID@@@Z 00413520 f i GifImage.obj
 0001:000125e0       ?GetFrameDelay@CGifImage@@QAEJH@Z 004135e0 f   GifImage.obj
 0001:00012690       ?GetFrameDimensionsCount@Image@Gdiplus@@QAEIXZ 00413690 f i GifImage.obj
 0001:00012740       ?GetFrameDimensionsList@Image@Gdiplus@@QAE?AW4Status@2@PAU_GUID@@I@Z 00413740 f i GifImage.obj
 0001:000127b0       ?GetHeight@CGifImage@@QAEHXZ 004137b0 f   GifImage.obj
 0001:00012820       ?GetHeight@Image@Gdiplus@@QAEIXZ 00413820 f i GifImage.obj
 0001:000128d0       ?GetImageEncoders@Gdiplus@@YA?AW4Status@1@IIPAVImageCodecInfo@1@@Z 004138d0 f i GifImage.obj
 0001:00012930       ?GetImageEncodersSize@Gdiplus@@YA?AW4Status@1@PAI0@Z 00413930 f i GifImage.obj
 0001:00012980       ?GetLastStatus@Image@Gdiplus@@QBE?AW4Status@2@XZ 00413980 f i GifImage.obj
 0001:000129d0       ?GetPropertyItem@Image@Gdiplus@@QAE?AW4Status@2@KIPAVPropertyItem@2@@Z 004139d0 f i GifImage.obj
 0001:00012a40       ?GetPropertyItemSize@Image@Gdiplus@@QAEIK@Z 00413a40 f i GifImage.obj
 0001:00012af0       ?GetRawFormat@CGifImage@@QAEHPAU_GUID@@@Z 00413af0 f   GifImage.obj
 0001:00012b80       ?GetRawFormat@Image@Gdiplus@@QAE?AW4Status@2@PAU_GUID@@@Z 00413b80 f i GifImage.obj
 0001:00012bf0       ?GetWidth@CGifImage@@QAEHXZ 00413bf0 f   GifImage.obj
 0001:00012c60       ?GetWidth@Image@Gdiplus@@QAEIXZ 00413c60 f i GifImage.obj
 0001:00012d10       ?IsAnimatedGif@CGifImage@@QAEHXZ 00413d10 f   GifImage.obj
 0001:00012d80       ?LoadFromBuffer@CGifImage@@QAEHPBEK@Z 00413d80 f   GifImage.obj
 0001:00012dc0       ?LoadFromFile@CGifImage@@QAEHPB_W@Z 00413dc0 f   GifImage.obj
 0001:000131a0       ?LoadFromIStream@CGifImage@@QAEHPAUIStream@@@Z 004141a0 f   GifImage.obj
 0001:000131e0       ?LoadFromResource@CGifImage@@QAEHPAUHINSTANCE__@@IPB_W@Z 004141e0 f   GifImage.obj
 0001:00013220       ?LoadFromResource@CGifImage@@QAEHPAUHINSTANCE__@@PB_W1@Z 00414220 f   GifImage.obj
 0001:00013260       ?Save@Image@Gdiplus@@QAE?AW4Status@2@PB_WPBU_GUID@@PBVEncoderParameters@2@@Z 00414260 f i GifImage.obj
 0001:000132d0       ?SaveAsFile@CGifImage@@QAEHPB_W@Z 004142d0 f   GifImage.obj
 0001:00013430       ?SelectActiveFrame@CGifImage@@QAEXH@Z 00414430 f   GifImage.obj
 0001:00013520       ?SelectActiveFrame@Image@Gdiplus@@QAE?AW4Status@2@PBU_GUID@@I@Z 00414520 f i GifImage.obj
 0001:00013590       ?SetNativeGraphics@Graphics@Gdiplus@@IAEXPAVGpGraphics@2@@Z 00414590 f i GifImage.obj
 0001:000135e0       ?SetNativeImage@Image@Gdiplus@@IAEXPAVGpImage@2@@Z 004145e0 f i GifImage.obj
 0001:00013630       ?SetStatus@Graphics@Gdiplus@@IBE?AW4Status@2@W432@@Z 00414630 f i GifImage.obj
 0001:00013690       ?SetStatus@Image@Gdiplus@@IBE?AW4Status@2@W432@@Z 00414690 f i GifImage.obj
 0001:000136f0       ?wcsrchr@@YAPA_WPA_W_W@Z   004146f0 f i GifImage.obj
 0001:00013750       _==                        00414750 f i GifImage.obj
 0001:000137d0       _IsEqualGUID               004147d0 f i GifImage.obj
 0001:00013850       ??$?8_WU?$char_traits@_W@std@@V?$allocator@_W@1@@std@@YA_NABV?$basic_string@_WU?$char_traits@_W@std@@V?$allocator@_W@2@@0@0@Z 00414850 f i MainWindow.obj
 0001:000138d0       ??$?9_WU?$char_traits@_W@std@@V?$allocator@_W@1@@std@@YA_NABV?$basic_string@_WU?$char_traits@_W@std@@V?$allocator@_W@2@@0@0@Z 004148d0 f i MainWindow.obj
 0001:00013950       ??$?H_WU?$char_traits@_W@std@@V?$allocator@_W@1@@std@@YA?AV?$basic_string@_WU?$char_traits@_W@std@@V?$allocator@_W@2@@0@$$QAV10@PB_W@Z 00414950 f i MainWindow.obj
 0001:000139e0       ??$?H_WU?$char_traits@_W@std@@V?$allocator@_W@1@@std@@YA?AV?$basic_string@_WU?$char_traits@_W@std@@V?$allocator@_W@2@@0@PB_W$$QAV10@@Z 004149e0 f i MainWindow.obj
 0001:00013a70       ??0CFontInfo@@QAE@XZ       00414a70 f   MainWindow.obj
 0001:00013b60       ??0CMainWindow@@QAE@XZ     00414b60 f   MainWindow.obj
 0001:00013e10       ??0STRINGorID@DuiLib@@QAE@PB_W@Z 00414e10 f i MainWindow.obj
 0001:00013e60       ??1CFontInfo@@QAE@XZ       00414e60 f   MainWindow.obj
 0001:00013ec0       ??1CMainWindow@@UAE@XZ     00414ec0 f   MainWindow.obj
 0001:00013ff0       ??Y?$basic_string@_WU?$char_traits@_W@std@@V?$allocator@_W@2@@std@@QAEAAV01@_W@Z 00414ff0 f i MainWindow.obj
 0001:00014050       ??_ECMainWindow@@UAEPAXI@Z 00415050 f i MainWindow.obj
 0001:00014050       ??_GCMainWindow@@UAEPAXI@Z 00415050 f i MainWindow.obj
 0001:000140c0       ?AddMsg@CMainWindow@@IAEXPAVCRichEditUI@DuiLib@@PB_W@Z 004150c0 f   MainWindow.obj
 0001:00014330       ?AddMsgToRecvEdit@CMainWindow@@IAEXPB_W@Z 00415330 f   MainWindow.obj
 0001:000146c0       ?AddMsgToSendEdit@CMainWindow@@IAEXPB_W@Z 004156c0 f   MainWindow.obj
 0001:00014760       ?CreateControl@CMainWindow@@UAEPAVCControlUI@DuiLib@@PB_W@Z 00415760 f   MainWindow.obj
 0001:000147a0       ?GetSkinFile@CMainWindow@@UAE?AVCStdString@DuiLib@@XZ 004157a0 f   MainWindow.obj
 0001:00014830       ?GetSkinFolder@CMainWindow@@UAE?AVCStdString@DuiLib@@XZ 00415830 f   MainWindow.obj
 0001:00014970       ?GetWindowClassName@CMainWindow@@UBEPB_WXZ 00415970 f   MainWindow.obj
 0001:000149b0       ?HandleCustomMessage@CMainWindow@@UAEJIIJAAH@Z 004159b0 f   MainWindow.obj
 0001:000149f0       ?HandleCustomPic@CMainWindow@@IAEHPAVCRichEditUI@DuiLib@@AAPB_WAAV?$basic_string@_WU?$char_traits@_W@std@@V?$allocator@_W@2@@std@@@Z 004159f0 f   MainWindow.obj
 0001:00014bf0       ?HandleMessage@CMainWindow@@UAEJIIJ@Z 00415bf0 f   MainWindow.obj
 0001:00014e70       ?HandleSysFaceId@CMainWindow@@IAEHPAVCRichEditUI@DuiLib@@AAPB_WAAV?$basic_string@_WU?$char_traits@_W@std@@V?$allocator@_W@2@@std@@@Z 00415e70 f   MainWindow.obj
 0001:00014fc0       ?HandleSysFaceIndex@CMainWindow@@IAEHPAVCRichEditUI@DuiLib@@AAPB_WAAV?$basic_string@_WU?$char_traits@_W@std@@V?$allocator@_W@2@@std@@@Z 00415fc0 f   MainWindow.obj
 0001:00015110       ?Init@CMainWindow@@UAEXXZ  00416110 f   MainWindow.obj
 0001:000157f0       ?Notify@CMainWindow@@MAEXAAUtagTNotifyUI@DuiLib@@@Z 004167f0 f   MainWindow.obj
 0001:00015ef0       ?OnBtn_Bold@CMainWindow@@IAEXAAUtagTNotifyUI@DuiLib@@@Z 00416ef0 f   MainWindow.obj
 0001:00016060       ?OnBtn_Close@CMainWindow@@IAEXAAUtagTNotifyUI@DuiLib@@@Z 00417060 f   MainWindow.obj
 0001:000160e0       ?OnBtn_Color@CMainWindow@@IAEXAAUtagTNotifyUI@DuiLib@@@Z 004170e0 f   MainWindow.obj
 0001:000162c0       ?OnBtn_Face@CMainWindow@@IAEXAAUtagTNotifyUI@DuiLib@@@Z 004172c0 f   MainWindow.obj
 0001:00016520       ?OnBtn_Font@CMainWindow@@IAEXAAUtagTNotifyUI@DuiLib@@@Z 00417520 f   MainWindow.obj
 0001:00016600       ?OnBtn_Image@CMainWindow@@IAEXAAUtagTNotifyUI@DuiLib@@@Z 00417600 f   MainWindow.obj
 0001:000167f0       ?OnBtn_Italic@CMainWindow@@IAEXAAUtagTNotifyUI@DuiLib@@@Z 004177f0 f   MainWindow.obj
 0001:00016960       ?OnBtn_Max@CMainWindow@@IAEXAAUtagTNotifyUI@DuiLib@@@Z 00417960 f   MainWindow.obj
 0001:000169d0       ?OnBtn_Min@CMainWindow@@IAEXAAUtagTNotifyUI@DuiLib@@@Z 004179d0 f   MainWindow.obj
 0001:00016a40       ?OnBtn_Restore@CMainWindow@@IAEXAAUtagTNotifyUI@DuiLib@@@Z 00417a40 f   MainWindow.obj
 0001:00016ab0       ?OnBtn_Send@CMainWindow@@IAEXAAUtagTNotifyUI@DuiLib@@@Z 00417ab0 f   MainWindow.obj
 0001:00016c90       ?OnBtn_UnderLine@CMainWindow@@IAEXAAUtagTNotifyUI@DuiLib@@@Z 00417c90 f   MainWindow.obj
 0001:00016e00       ?OnCbo_SelChange_FontName@CMainWindow@@IAEXAAUtagTNotifyUI@DuiLib@@@Z 00417e00 f   MainWindow.obj
 0001:00017070       ?OnCbo_SelChange_FontSize@CMainWindow@@IAEXAAUtagTNotifyUI@DuiLib@@@Z 00418070 f   MainWindow.obj
 0001:000172f0       ?OnClose@CMainWindow@@UAEJIIJAAH@Z 004182f0 f   MainWindow.obj
 0001:00017380       ?OnFaceCtrlSel@CMainWindow@@IAEJIIJ@Z 00418380 f   MainWindow.obj
 0001:00017550       ?OnFinalMessage@CMainWindow@@UAEXPAUHWND__@@@Z 00418550 f   MainWindow.obj
 0001:000175b0       ?OnLButtonDblClk@CMainWindow@@IAEJIIJ@Z 004185b0 f   MainWindow.obj
 0001:00017800       ?OnMenu_Clear@CMainWindow@@IAEXAAUtagTNotifyUI@DuiLib@@@Z 00418800 f   MainWindow.obj
 0001:00017880       ?OnMenu_Copy@CMainWindow@@IAEXAAUtagTNotifyUI@DuiLib@@@Z 00418880 f   MainWindow.obj
 0001:00017940       ?OnMenu_Cut@CMainWindow@@IAEXAAUtagTNotifyUI@DuiLib@@@Z 00418940 f   MainWindow.obj
 0001:000179b0       ?OnMenu_Paste@CMainWindow@@IAEXAAUtagTNotifyUI@DuiLib@@@Z 004189b0 f   MainWindow.obj
 0001:00017a20       ?OnMenu_SaveAs@CMainWindow@@IAEXAAUtagTNotifyUI@DuiLib@@@Z 00418a20 f   MainWindow.obj
 0001:00018120       ?OnMenu_SelAll@CMainWindow@@IAEXAAUtagTNotifyUI@DuiLib@@@Z 00419120 f   MainWindow.obj
 0001:000181f0       ?OnMenu_ZoomRatio@CMainWindow@@IAEXAAUtagTNotifyUI@DuiLib@@@Z 004191f0 f   MainWindow.obj
 0001:00018540       ?OnMouseMove@CMainWindow@@IAEJIIJ@Z 00419540 f   MainWindow.obj
 0001:00018ac0       ?OnRButtonDown@CMainWindow@@IAEJIIJ@Z 00419ac0 f   MainWindow.obj
 0001:00019180       ?OnSysCommand@CMainWindow@@UAEJIIJAAH@Z 0041a180 f   MainWindow.obj
 0001:00019350       ?OnTimer@CMainWindow@@IAEXAAUtagTNotifyUI@DuiLib@@@Z 0041a350 f   MainWindow.obj
 0001:00019390       ?ResponseDefaultKeyEvent@CMainWindow@@UAEJI@Z 0041a390 f   MainWindow.obj
 0001:000193f0       ?_Chassign@?$basic_string@_WU?$char_traits@_W@std@@V?$allocator@_W@2@@std@@QAEXII_W@Z 0041a3f0 f i MainWindow.obj
 0001:00019490       ?_RichEdit_InsertFace@CMainWindow@@IAEHPAVCRichEditUI@DuiLib@@PB_WHH@Z 0041a490 f   MainWindow.obj
 0001:000195f0       ?_RichEdit_ReplaceSel@CMainWindow@@IAEXPAVCRichEditUI@DuiLib@@PB_W@Z 0041a5f0 f   MainWindow.obj
 0001:00019710       ?append@?$basic_string@_WU?$char_traits@_W@std@@V?$allocator@_W@2@@std@@QAEAAV12@I_W@Z 0041a710 f i MainWindow.obj
 0001:000197e0       ?assign@?$char_traits@_W@std@@SAPA_WPA_WI_W@Z 0041a7e0 f i MainWindow.obj
 0001:00019840       ?compare@?$basic_string@_WU?$char_traits@_W@std@@V?$allocator@_W@2@@std@@QBEHABV12@@Z 0041a840 f i MainWindow.obj
 0001:000198c0       ?empty@?$basic_string@_WU?$char_traits@_W@std@@V?$allocator@_W@2@@std@@QBE_NXZ 0041a8c0 f i MainWindow.obj
 0001:00019930       ?insert@?$basic_string@_WU?$char_traits@_W@std@@V?$allocator@_W@2@@std@@QAEAAV12@IPB_W@Z 0041a930 f i MainWindow.obj
 0001:000199c0       ?insert@?$basic_string@_WU?$char_traits@_W@std@@V?$allocator@_W@2@@std@@QAEAAV12@IPB_WI@Z 0041a9c0 f i MainWindow.obj
 0001:00019b60       _InlineIsEqualGUID         0041ab60 f i MainWindow.obj
 0001:00019cb0       _wmemset                   0041acb0 f i MainWindow.obj
 0001:00019d20       ??0?$_String_const_iterator@V?$_String_val@U?$_Simple_types@_W@std@@@std@@@std@@QAE@XZ 0041ad20 f i Path.obj
 0001:00019d80       ??0?$_String_iterator@V?$_String_val@U?$_Simple_types@_W@std@@@std@@@std@@QAE@XZ 0041ad80 f i Path.obj
 0001:00019de0       ??0CPath@ZYM@@QAE@XZ       0041ade0 f   Path.obj
 0001:00019e20       ??1CPath@ZYM@@QAE@XZ       0041ae20 f   Path.obj
 0001:00019e60       ??4?$_Iterator012@Urandom_access_iterator_tag@std@@_WHPB_WAB_WU_Iterator_base12@2@@std@@QAEAAU01@ABU01@@Z 0041ae60 f i Path.obj
 0001:00019ec0       ??4?$_String_const_iterator@V?$_String_val@U?$_Simple_types@_W@std@@@std@@@std@@QAEAAV01@ABV01@@Z 0041aec0 f i Path.obj
 0001:00019f30       ??4?$_String_iterator@V?$_String_val@U?$_Simple_types@_W@std@@@std@@@std@@QAEAAV01@ABV01@@Z 0041af30 f i Path.obj
 0001:00019f90       ??E?$_String_const_iterator@V?$_String_val@U?$_Simple_types@_W@std@@@std@@@std@@QAEAAV01@XZ 0041af90 f i Path.obj
 0001:0001a0e0       ??E?$_String_iterator@V?$_String_val@U?$_Simple_types@_W@std@@@std@@@std@@QAE?AV01@H@Z 0041b0e0 f i Path.obj
 0001:0001a200       ??E?$_String_iterator@V?$_String_val@U?$_Simple_types@_W@std@@@std@@@std@@QAEAAV01@XZ 0041b200 f i Path.obj
 0001:0001a260       ??M?$_String_const_iterator@V?$_String_val@U?$_Simple_types@_W@std@@@std@@@std@@QBE_NABV01@@Z 0041b260 f i Path.obj
 0001:0001a2f0       ?CreateDirectoryW@CPath@ZYM@@SAHPB_WPAU_SECURITY_ATTRIBUTES@@@Z 0041b2f0 f   Path.obj
 0001:0001a5e0       ?GetAppPath@CPath@ZYM@@SA?AV?$basic_string@_WU?$char_traits@_W@std@@V?$allocator@_W@2@@std@@XZ 0041b5e0 f   Path.obj
 0001:0001a730       ?GetCurDir@CPath@ZYM@@SA?AV?$basic_string@_WU?$char_traits@_W@std@@V?$allocator@_W@2@@std@@XZ 0041b730 f   Path.obj
 0001:0001a8a0       ?GetDirectoryName@CPath@ZYM@@SA?AV?$basic_string@_WU?$char_traits@_W@std@@V?$allocator@_W@2@@std@@PB_W@Z 0041b8a0 f   Path.obj
 0001:0001aba0       ?GetExtension@CPath@ZYM@@SA?AV?$basic_string@_WU?$char_traits@_W@std@@V?$allocator@_W@2@@std@@PB_W@Z 0041bba0 f   Path.obj
 0001:0001ad60       ?GetFileName@CPath@ZYM@@SA?AV?$basic_string@_WU?$char_traits@_W@std@@V?$allocator@_W@2@@std@@PB_W@Z 0041bd60 f   Path.obj
 0001:0001b060       ?GetFileNameWithoutExtension@CPath@ZYM@@SA?AV?$basic_string@_WU?$char_traits@_W@std@@V?$allocator@_W@2@@std@@PB_W@Z 0041c060 f   Path.obj
 0001:0001b3c0       ?GetFullPath@CPath@ZYM@@SA?AV?$basic_string@_WU?$char_traits@_W@std@@V?$allocator@_W@2@@std@@PB_W@Z 0041c3c0 f   Path.obj
 0001:0001b880       ?GetPathRoot@CPath@ZYM@@SA?AV?$basic_string@_WU?$char_traits@_W@std@@V?$allocator@_W@2@@std@@PB_W@Z 0041c880 f   Path.obj
 0001:0001bb80       ?GetRandomFileName@CPath@ZYM@@SA?AV?$basic_string@_WU?$char_traits@_W@std@@V?$allocator@_W@2@@std@@PB_W0@Z 0041cb80 f   Path.obj
 0001:0001c040       ?GetTempFileNameW@CPath@ZYM@@SA?AV?$basic_string@_WU?$char_traits@_W@std@@V?$allocator@_W@2@@std@@PB_W@Z 0041d040 f   Path.obj
 0001:0001c160       ?GetTempPathW@CPath@ZYM@@SA?AV?$basic_string@_WU?$char_traits@_W@std@@V?$allocator@_W@2@@std@@XZ 0041d160 f   Path.obj
 0001:0001c2d0       ?IsDirectory@CPath@ZYM@@SAHPB_W@Z 0041d2d0 f   Path.obj
 0001:0001c370       ?IsDirectoryExist@CPath@ZYM@@SAHPB_W@Z 0041d370 f   Path.obj
 0001:0001c410       ?IsFileExist@CPath@ZYM@@SAHPB_W@Z 0041d410 f   Path.obj
 0001:0001c4a0       ?at@?$basic_string@_WU?$char_traits@_W@std@@V?$allocator@_W@2@@std@@QAEAA_WI@Z 0041d4a0 f i Path.obj
 0001:0001c510       ?eq@?$char_traits@_W@std@@SA_NAB_W0@Z 0041d510 f i Path.obj
 0001:0001c580       ?find@?$basic_string@_WU?$char_traits@_W@std@@V?$allocator@_W@2@@std@@QBEIPB_WII@Z 0041d580 f i Path.obj
 0001:0001c6f0       ?find@?$basic_string@_WU?$char_traits@_W@std@@V?$allocator@_W@2@@std@@QBEI_WI@Z 0041d6f0 f i Path.obj
 0001:0001c750       ?find@?$char_traits@_W@std@@SAPB_WPB_WIAB_W@Z 0041d750 f i Path.obj
 0001:0001c7d0       ?rfind@?$basic_string@_WU?$char_traits@_W@std@@V?$allocator@_W@2@@std@@QBEIPB_WII@Z 0041d7d0 f i Path.obj
 0001:0001c960       ?rfind@?$basic_string@_WU?$char_traits@_W@std@@V?$allocator@_W@2@@std@@QBEI_WI@Z 0041d960 f i Path.obj
 0001:0001c9c0       ?wcschr@@YAPA_WPA_W_W@Z    0041d9c0 f i Path.obj
 0001:0001ca20       _wmemchr                   0041da20 f i Path.obj
 0001:0001ca90       ??0CPicBarDlg@@QAE@XZ      0041da90 f   PicBarDlg.obj
 0001:0001cb80       ??1CPicBarDlg@@UAE@XZ      0041db80 f   PicBarDlg.obj
 0001:0001cc00       ??_ECPicBarDlg@@UAEPAXI@Z  0041dc00 f i PicBarDlg.obj
 0001:0001cc00       ??_GCPicBarDlg@@UAEPAXI@Z  0041dc00 f i PicBarDlg.obj
 0001:0001cc70       ?CreateControl@CPicBarDlg@@UAEPAVCControlUI@DuiLib@@PB_W@Z 0041dc70 f   PicBarDlg.obj
 0001:0001cd90       ?GetSkinFile@CPicBarDlg@@UAE?AVCStdString@DuiLib@@XZ 0041dd90 f   PicBarDlg.obj
 0001:0001ce20       ?GetSkinFolder@CPicBarDlg@@UAE?AVCStdString@DuiLib@@XZ 0041de20 f   PicBarDlg.obj
 0001:0001cf60       ?GetWindowClassName@CPicBarDlg@@UBEPB_WXZ 0041df60 f   PicBarDlg.obj
 0001:0001cfa0       ?HandleCustomMessage@CPicBarDlg@@UAEJIIJAAH@Z 0041dfa0 f   PicBarDlg.obj
 0001:0001cfe0       ?HandleMessage@CPicBarDlg@@UAEJIIJ@Z 0041dfe0 f   PicBarDlg.obj
 0001:0001d040       ?Init@CPicBarDlg@@UAEXXZ   0041e040 f   PicBarDlg.obj
 0001:0001d160       ?Notify@CPicBarDlg@@MAEXAAUtagTNotifyUI@DuiLib@@@Z 0041e160 f   PicBarDlg.obj
 0001:0001d200       ?OnBtn_SaveAs@CPicBarDlg@@IAEXAAUtagTNotifyUI@DuiLib@@@Z 0041e200 f   PicBarDlg.obj
 0001:0001d310       ?OnFinalMessage@CPicBarDlg@@UAEXPAUHWND__@@@Z 0041e310 f   PicBarDlg.obj
 0001:0001d370       ?ResponseDefaultKeyEvent@CPicBarDlg@@UAEJI@Z 0041e370 f   PicBarDlg.obj
 0001:0001d3d0       ?SetCallBackCtrl@CPicBarDlg@@QAEXPAVCControlUI@DuiLib@@@Z 0041e3d0 f   PicBarDlg.obj
 0001:0001d420       ??0GdiplusStartupInput@Gdiplus@@QAE@P6GXW4DebugEventLevel@1@PAD@ZHH@Z 0041e420 f i RichEditDemo.obj
 0001:0001d490       _wWinMain@16               0041e490 f   RichEditDemo.obj
 0001:0001d8b0       ?RichEdit_GetDefaultCharFormat@@YAKPAUHWND__@@AAU_charformatw@@@Z 0041e8b0 f   RichEditUtil.obj
 0001:0001d920       ?RichEdit_GetDefaultCharFormat@@YAKPAVITextServices@@AAU_charformatw@@@Z 0041e920 f   RichEditUtil.obj
 0001:0001d9e0       ?RichEdit_GetImageOle@@YAHPAUHWND__@@UtagPOINT@@PAPAUIImageOle@@@Z 0041e9e0 f   RichEditUtil.obj
 0001:0001dd30       ?RichEdit_GetImageOle@@YAHPAVITextServices@@UtagPOINT@@PAPAUIImageOle@@@Z 0041ed30 f   RichEditUtil.obj
 0001:0001e080       ?RichEdit_GetOleInterface@@YAPAUIRichEditOle@@PAUHWND__@@@Z 0041f080 f   RichEditUtil.obj
 0001:0001e130       ?RichEdit_GetOleInterface@@YAPAUIRichEditOle@@PAVITextServices@@@Z 0041f130 f   RichEditUtil.obj
 0001:0001e1f0       ?RichEdit_GetSel@@YAXPAUHWND__@@AAJ1@Z 0041f1f0 f   RichEditUtil.obj
 0001:0001e2b0       ?RichEdit_GetSel@@YAXPAVITextServices@@AAJ1@Z 0041f2b0 f   RichEditUtil.obj
 0001:0001e380       ?RichEdit_GetSelectionCharFormat@@YAKPAUHWND__@@AAU_charformatw@@@Z 0041f380 f   RichEditUtil.obj
 0001:0001e3f0       ?RichEdit_GetSelectionCharFormat@@YAKPAVITextServices@@AAU_charformatw@@@Z 0041f3f0 f   RichEditUtil.obj
 0001:0001e4b0       ?RichEdit_GetText@@YAXPAUHWND__@@AAV?$basic_string@_WU?$char_traits@_W@std@@V?$allocator@_W@2@@std@@@Z 0041f4b0 f   RichEditUtil.obj
 0001:0001eb00       ?RichEdit_GetText@@YAXPAVITextServices@@AAV?$basic_string@_WU?$char_traits@_W@std@@V?$allocator@_W@2@@std@@@Z 0041fb00 f   RichEditUtil.obj
 0001:0001f150       ?RichEdit_GetTextRange@@YAHPAUHWND__@@PAU_charrange@@AAV?$basic_string@_WU?$char_traits@_W@std@@V?$allocator@_W@2@@std@@@Z 00420150 f   RichEditUtil.obj
 0001:0001f2f0       ?RichEdit_GetTextRange@@YAHPAVITextServices@@PAU_charrange@@AAV?$basic_string@_WU?$char_traits@_W@std@@V?$allocator@_W@2@@std@@@Z 004202f0 f   RichEditUtil.obj
 0001:0001f4c0       ?RichEdit_GetWindowText@@YAHPAUHWND__@@AAV?$basic_string@_WU?$char_traits@_W@std@@V?$allocator@_W@2@@std@@@Z 004204c0 f   RichEditUtil.obj
 0001:0001f5d0       ?RichEdit_GetWindowText@@YAHPAUHWND__@@PA_WH@Z 004205d0 f   RichEditUtil.obj
 0001:0001f630       ?RichEdit_GetWindowText@@YAHPAVITextServices@@AAV?$basic_string@_WU?$char_traits@_W@std@@V?$allocator@_W@2@@std@@@Z 00420630 f   RichEditUtil.obj
 0001:0001f740       ?RichEdit_GetWindowText@@YAHPAVITextServices@@PA_WH@Z 00420740 f   RichEditUtil.obj
 0001:0001f7f0       ?RichEdit_GetWindowTextLength@@YAHPAUHWND__@@@Z 004207f0 f   RichEditUtil.obj
 0001:0001f850       ?RichEdit_GetWindowTextLength@@YAHPAVITextServices@@@Z 00420850 f   RichEditUtil.obj
 0001:0001f900       ?RichEdit_InsertFace@@YAHPAUHWND__@@PB_WHHKHH@Z 00420900 f   RichEditUtil.obj
 0001:0001ff20       ?RichEdit_InsertFace@@YAHPAVITextServices@@PAVITextHost@@PB_WHHKHH@Z 00420f20 f   RichEditUtil.obj
 0001:00020560       ?RichEdit_ReplaceSel@@YAXPAUHWND__@@PB_W1HKHHHHHH@Z 00421560 f   RichEditUtil.obj
 0001:000206e0       ?RichEdit_ReplaceSel@@YAXPAUHWND__@@PB_WH@Z 004216e0 f   RichEditUtil.obj
 0001:00020750       ?RichEdit_ReplaceSel@@YAXPAVITextServices@@PB_W1HKHHHHHH@Z 00421750 f   RichEditUtil.obj
 0001:000208d0       ?RichEdit_ReplaceSel@@YAXPAVITextServices@@PB_WH@Z 004218d0 f   RichEditUtil.obj
 0001:00020940       ?RichEdit_SetDefFont@@YAXPAUHWND__@@PB_WH@Z 00421940 f   RichEditUtil.obj
 0001:00020a60       ?RichEdit_SetDefFont@@YAXPAUHWND__@@PB_WHKHHHH@Z 00421a60 f   RichEditUtil.obj
 0001:00020c20       ?RichEdit_SetDefFont@@YAXPAVITextServices@@PB_WHKHHHH@Z 00421c20 f   RichEditUtil.obj
 0001:00020de0       ?RichEdit_SetDefLinkText@@YAXPAUHWND__@@H@Z 00421de0 f   RichEditUtil.obj
 0001:00020ee0       ?RichEdit_SetDefTextColor@@YAXPAUHWND__@@K@Z 00421ee0 f   RichEditUtil.obj
 0001:00020fd0       ?RichEdit_SetDefaultCharFormat@@YAHPAUHWND__@@AAU_charformatw@@@Z 00421fd0 f   RichEditUtil.obj
 0001:00021040       ?RichEdit_SetDefaultCharFormat@@YAHPAVITextServices@@AAU_charformatw@@@Z 00422040 f   RichEditUtil.obj
 0001:00021100       ?RichEdit_SetFont@@YAXPAUHWND__@@PB_WH@Z 00422100 f   RichEditUtil.obj
 0001:00021220       ?RichEdit_SetFont@@YAXPAUHWND__@@PB_WHKHHHH@Z 00422220 f   RichEditUtil.obj
 0001:000213e0       ?RichEdit_SetFont@@YAXPAVITextServices@@PB_WHKHHHH@Z 004223e0 f   RichEditUtil.obj
 0001:000215a0       ?RichEdit_SetLinkText@@YAXPAUHWND__@@H@Z 004225a0 f   RichEditUtil.obj
 0001:000216a0       ?RichEdit_SetSel@@YAHPAUHWND__@@JJ@Z 004226a0 f   RichEditUtil.obj
 0001:00021750       ?RichEdit_SetSel@@YAHPAVITextServices@@JJ@Z 00422750 f   RichEditUtil.obj
 0001:00021830       ?RichEdit_SetSelectionCharFormat@@YAHPAUHWND__@@AAU_charformatw@@@Z 00422830 f   RichEditUtil.obj
 0001:000218a0       ?RichEdit_SetSelectionCharFormat@@YAHPAVITextServices@@AAU_charformatw@@@Z 004228a0 f   RichEditUtil.obj
 0001:00021960       ?RichEdit_SetStartIndent@@YAHPAUHWND__@@H@Z 00422960 f   RichEditUtil.obj
 0001:00021a60       ?RichEdit_SetStartIndent@@YAHPAVITextServices@@H@Z 00422a60 f   RichEditUtil.obj
 0001:00021b90       ?RichEdit_SetTextColor@@YAXPAUHWND__@@K@Z 00422b90 f   RichEditUtil.obj
 0001:00021c80       ??$_Allocate@D@std@@YAPADIPAD@Z 00422c80 f i stdafx.obj
 0001:00021d10       ??$_Debug_pointer@D@std@@YAXPBDPB_WI@Z 00422d10 f i stdafx.obj
 0001:00021d80       ??$addressof@D@std@@YAPADAAD@Z 00422d80 f i stdafx.obj
 0001:00021dc0       ??$construct@PADAAPAD@?$_Wrap_alloc@V?$allocator@D@std@@@std@@QAEXPAPADAAPAD@Z 00422dc0 f i stdafx.obj
 0001:00021e30       ??$construct@PADAAPAD@?$allocator@D@std@@QAEXPAPADAAPAD@Z 00422e30 f i stdafx.obj
 0001:00021f30       ??$construct@PADAAPAD@?$allocator_traits@V?$allocator@D@std@@@std@@SAXAAV?$allocator@D@1@PAPADAAPAD@Z 00422f30 f i stdafx.obj
 0001:00021f90       ??$destroy@PAD@?$_Wrap_alloc@V?$allocator@D@std@@@std@@QAEXPAPAD@Z 00422f90 f i stdafx.obj
 0001:00021ff0       ??$destroy@PAD@?$allocator@D@std@@QAEXPAPAD@Z 00422ff0 f i stdafx.obj
 0001:00022030       ??$destroy@PAD@?$allocator_traits@V?$allocator@D@std@@@std@@SAXAAV?$allocator@D@1@PAPAD@Z 00423030 f i stdafx.obj
 0001:00022080       ??$forward@AAPAD@std@@YAAAPADAAPAD@Z 00423080 f i stdafx.obj
 0001:000220c0       ??0?$_String_alloc@$0A@U?$_String_base_types@DV?$allocator@D@std@@@std@@@std@@QAE@ABV?$allocator@D@1@@Z 004230c0 f i stdafx.obj
 0001:00022170       ??0?$_String_val@U?$_Simple_types@D@std@@@std@@QAE@XZ 00423170 f i stdafx.obj
 0001:000221f0       ??0?$_Wrap_alloc@V?$allocator@D@std@@@std@@QAE@XZ 004231f0 f i stdafx.obj
 0001:00022250       ??0?$allocator@D@std@@QAE@XZ 00423250 f i stdafx.obj
 0001:00022290       ??0?$basic_string@DU?$char_traits@D@std@@V?$allocator@D@2@@std@@QAE@PBD@Z 00423290 f i stdafx.obj
 0001:00022360       ??0_Generic_error_category@std@@QAE@XZ 00423360 f i stdafx.obj
 0001:000223c0       ??0_Ignore@std@@QAE@XZ     004233c0 f i stdafx.obj
 0001:00022400       ??0_Iostream_error_category@std@@QAE@XZ 00423400 f i stdafx.obj
 0001:00022460       ??0_System_error_category@std@@QAE@XZ 00423460 f i stdafx.obj
 0001:000224c0       ??0error_category@std@@QAE@XZ 004234c0 f i stdafx.obj
 0001:00022510       ??0error_condition@std@@QAE@HABVerror_category@1@@Z 00423510 f i stdafx.obj
 0001:00022560       ??1?$_String_alloc@$0A@U?$_String_base_types@DV?$allocator@D@std@@@std@@@std@@QAE@XZ 00423560 f i stdafx.obj
 0001:000225c0       ??1?$_String_val@U?$_Simple_types@D@std@@@std@@QAE@XZ 004235c0 f i stdafx.obj
 0001:00022620       ??1_Generic_error_category@std@@UAE@XZ 00423620 f i stdafx.obj
 0001:00022670       ??1_Iostream_error_category@std@@UAE@XZ 00423670 f i stdafx.obj
 0001:000226c0       ??1_System_error_category@std@@UAE@XZ 004236c0 f i stdafx.obj
 0001:00022710       ??1error_category@std@@UAE@XZ 00423710 f i stdafx.obj
 0001:00022750       ??8error_category@std@@QBE_NABV01@@Z 00423750 f i stdafx.obj
 0001:000227c0       ??8error_condition@std@@QBE_NABV01@@Z 004237c0 f i stdafx.obj
 0001:00022870       ??_E_Generic_error_category@std@@UAEPAXI@Z 00423870 f i stdafx.obj
 0001:00022870       ??_G_Generic_error_category@std@@UAEPAXI@Z 00423870 f i stdafx.obj
 0001:000228e0       ??_G_Iostream_error_category@std@@UAEPAXI@Z 004238e0 f i stdafx.obj
 0001:000228e0       ??_E_Iostream_error_category@std@@UAEPAXI@Z 004238e0 f i stdafx.obj
 0001:00022950       ??_E_System_error_category@std@@UAEPAXI@Z 00423950 f i stdafx.obj
 0001:00022950       ??_G_System_error_category@std@@UAEPAXI@Z 00423950 f i stdafx.obj
 0001:000229c0       ??_Gerror_category@std@@UAEPAXI@Z 004239c0 f i stdafx.obj
 0001:000229c0       ??_Eerror_category@std@@UAEPAXI@Z 004239c0 f i stdafx.obj
 0001:00022a30       ?_Alloc_proxy@?$_String_alloc@$0A@U?$_String_base_types@DV?$allocator@D@std@@@std@@@std@@QAEXXZ 00423a30 f i stdafx.obj
 0001:00022b00       ?_Copy@?$basic_string@DU?$char_traits@D@std@@V?$allocator@D@2@@std@@QAEXII@Z 00423b00 f i stdafx.obj
 0001:00022dc0       ?_Eos@?$basic_string@DU?$char_traits@D@std@@V?$allocator@D@2@@std@@QAEXI@Z 00423dc0 f i stdafx.obj
 0001:00022e40       ?_Free_proxy@?$_String_alloc@$0A@U?$_String_base_types@DV?$allocator@D@std@@@std@@@std@@QAEXXZ 00423e40 f i stdafx.obj
 0001:00022f20       ?_Getal@?$_String_alloc@$0A@U?$_String_base_types@DV?$allocator@D@std@@@std@@@std@@QBE?AU?$_Wrap_alloc@V?$allocator@D@std@@@2@XZ 00423f20 f i stdafx.obj
 0001:00022f80       ?_Grow@?$basic_string@DU?$char_traits@D@std@@V?$allocator@D@2@@std@@QAE_NI_N@Z 00423f80 f i stdafx.obj
 0001:000230a0       ?_Inside@?$basic_string@DU?$char_traits@D@std@@V?$allocator@D@2@@std@@QAE_NPBD@Z 004240a0 f i stdafx.obj
 0001:00023120       ?_Myptr@?$_String_val@U?$_Simple_types@D@std@@@std@@QAEPADXZ 00424120 f i stdafx.obj
 0001:000231b0       ?_Myptr@?$_String_val@U?$_Simple_types@D@std@@@std@@QBEPBDXZ 004241b0 f i stdafx.obj
 0001:00023240       ?_Tidy@?$basic_string@DU?$char_traits@D@std@@V?$allocator@D@2@@std@@QAEX_NI@Z 00424240 f i stdafx.obj
 0001:00023350       ?_Xlen@?$basic_string@DU?$char_traits@D@std@@V?$allocator@D@2@@std@@QBEXXZ 00424350 f i stdafx.obj
 0001:000233b0       ?_Xran@?$basic_string@DU?$char_traits@D@std@@V?$allocator@D@2@@std@@QBEXXZ 004243b0 f i stdafx.obj
 0001:00023410       ?allocate@?$_Wrap_alloc@V?$allocator@D@std@@@std@@QAEPADI@Z 00424410 f i stdafx.obj
 0001:00023470       ?allocate@?$allocator@D@std@@QAEPADI@Z 00424470 f i stdafx.obj
 0001:000234d0       ?assign@?$basic_string@DU?$char_traits@D@std@@V?$allocator@D@2@@std@@QAEAAV12@ABV12@II@Z 004244d0 f i stdafx.obj
 0001:000235e0       ?assign@?$basic_string@DU?$char_traits@D@std@@V?$allocator@D@2@@std@@QAEAAV12@PBD@Z 004245e0 f i stdafx.obj
 0001:00023670       ?assign@?$basic_string@DU?$char_traits@D@std@@V?$allocator@D@2@@std@@QAEAAV12@PBDI@Z 00424670 f i stdafx.obj
 0001:00023770       ?assign@?$char_traits@D@std@@SAXAADABD@Z 00424770 f i stdafx.obj
 0001:000237b0       ?category@error_code@std@@QBEABVerror_category@2@XZ 004247b0 f i stdafx.obj
 0001:000237f0       ?category@error_condition@std@@QBEABVerror_category@2@XZ 004247f0 f i stdafx.obj
 0001:00023830       ?copy@?$char_traits@D@std@@SAPADPADPBDI@Z 00424830 f i stdafx.obj
 0001:000238b0       ?deallocate@?$_Wrap_alloc@V?$allocator@D@std@@@std@@QAEXPADI@Z 004248b0 f i stdafx.obj
 0001:00023910       ?deallocate@?$allocator@D@std@@QAEXPADI@Z 00424910 f i stdafx.obj
 0001:00023970       ?default_error_condition@_System_error_category@std@@UBE?AVerror_condition@2@H@Z 00424970 f i stdafx.obj
 0001:00023a20       ?default_error_condition@error_category@std@@UBE?AVerror_condition@2@H@Z 00424a20 f i stdafx.obj
 0001:00023a80       ?equivalent@error_category@std@@UBE_NABVerror_code@2@H@Z 00424a80 f i stdafx.obj
 0001:00023b20       ?equivalent@error_category@std@@UBE_NHABVerror_condition@2@@Z 00424b20 f i stdafx.obj
 0001:00023ba0       ?erase@?$basic_string@DU?$char_traits@D@std@@V?$allocator@D@2@@std@@QAEAAV12@I@Z 00424ba0 f i stdafx.obj
 0001:00023c20       ?erase@?$basic_string@DU?$char_traits@D@std@@V?$allocator@D@2@@std@@QAEAAV12@II@Z 00424c20 f i stdafx.obj
 0001:00023d00       ?generic_category@std@@YAABVerror_category@1@XZ 00424d00 f i stdafx.obj
 0001:00023d40       ?length@?$char_traits@D@std@@SAIPBD@Z 00424d40 f i stdafx.obj
 0001:00023dc0       ?max_size@?$_Wrap_alloc@V?$allocator@D@std@@@std@@QBEIXZ 00424dc0 f i stdafx.obj
 0001:00023e20       ?max_size@?$allocator@D@std@@QBEIXZ 00424e20 f i stdafx.obj
 0001:00023e60       ?max_size@?$allocator_traits@V?$allocator@D@std@@@std@@SAIABV?$allocator@D@2@@Z 00424e60 f i stdafx.obj
 0001:00023eb0       ?max_size@?$basic_string@DU?$char_traits@D@std@@V?$allocator@D@2@@std@@QBEIXZ 00424eb0 f i stdafx.obj
 0001:00023f50       ?message@_Generic_error_category@std@@UBE?AV?$basic_string@DU?$char_traits@D@std@@V?$allocator@D@2@@2@H@Z 00424f50 f i stdafx.obj
 0001:00024010       ?message@_Iostream_error_category@std@@UBE?AV?$basic_string@DU?$char_traits@D@std@@V?$allocator@D@2@@2@H@Z 00425010 f i stdafx.obj
 0001:000240d0       ?message@_System_error_category@std@@UBE?AV?$basic_string@DU?$char_traits@D@std@@V?$allocator@D@2@@2@H@Z 004250d0 f i stdafx.obj
 0001:00024190       ?move@?$char_traits@D@std@@SAPADPADPBDI@Z 00425190 f i stdafx.obj
 0001:00024220       ?name@_Generic_error_category@std@@UBEPBDXZ 00425220 f i stdafx.obj
 0001:00024260       ?name@_Iostream_error_category@std@@UBEPBDXZ 00425260 f i stdafx.obj
 0001:000242a0       ?name@_System_error_category@std@@UBEPBDXZ 004252a0 f i stdafx.obj
 0001:000242e0       ?size@?$basic_string@DU?$char_traits@D@std@@V?$allocator@D@2@@std@@QBEIXZ 004252e0 f i stdafx.obj
 0001:00024320       ?system_category@std@@YAABVerror_category@1@XZ 00425320 f i stdafx.obj
 0001:00024360       ?value@error_code@std@@QBEHXZ 00425360 f i stdafx.obj
 0001:000243a0       ?value@error_condition@std@@QBEHXZ 004253a0 f i stdafx.obj
 0001:000243e0       _hypot                     004253e0 f i stdafx.obj
 0001:00024460       ??$?8V?$_Vector_iterator@V?$_Vector_val@U?$_Simple_types@PAV?$ReceiverImplBase@HUContextMenuParam@DuiLib@@@@@std@@@std@@@std@@V01@@std@@YA_NABV?$reverse_iterator@V?$_Vector_iterator@V?$_Vector_val@U?$_Simple_types@PAV?$ReceiverImplBase@HUContextMenuParam@DuiLib@@@@@std@@@std@@@std@@@0@0@Z 00425460 f i UIMenu.obj
 0001:000244b0       ??$?9V?$_Vector_iterator@V?$_Vector_val@U?$_Simple_types@PAV?$ReceiverImplBase@HUContextMenuParam@DuiLib@@@@@std@@@std@@@std@@V01@@std@@YA_NABV?$reverse_iterator@V?$_Vector_iterator@V?$_Vector_val@U?$_Simple_types@PAV?$ReceiverImplBase@HUContextMenuParam@DuiLib@@@@@std@@@std@@@std@@@0@0@Z 004254b0 f i UIMenu.obj
 0001:00024530       ??$_Allocate@PAV?$ObserverImplBase@HUContextMenuParam@DuiLib@@@@@std@@YAPAPAV?$ObserverImplBase@HUContextMenuParam@DuiLib@@@@IPAPAV1@@Z 00425530 f i UIMenu.obj
 0001:000245d0       ??$_Allocate@PAV?$ReceiverImplBase@HUContextMenuParam@DuiLib@@@@@std@@YAPAPAV?$ReceiverImplBase@HUContextMenuParam@DuiLib@@@@IPAPAV1@@Z 004255d0 f i UIMenu.obj
 0001:00024670       ??$_Debug_pointer@PAV?$ObserverImplBase@HUContextMenuParam@DuiLib@@@@@std@@YAXPAPAV?$ObserverImplBase@HUContextMenuParam@DuiLib@@@@PB_WI@Z 00425670 f i UIMenu.obj
 0001:000246e0       ??$_Debug_pointer@PAV?$ReceiverImplBase@HUContextMenuParam@DuiLib@@@@@std@@YAXPAPAV?$ReceiverImplBase@HUContextMenuParam@DuiLib@@@@PB_WI@Z 004256e0 f i UIMenu.obj
 0001:00024750       ??$_Debug_range2@PAPAV?$ObserverImplBase@HUContextMenuParam@DuiLib@@@@@std@@YAXPAPAV?$ObserverImplBase@HUContextMenuParam@DuiLib@@@@0PB_WIUrandom_access_iterator_tag@0@@Z 00425750 f i UIMenu.obj
 0001:00024800       ??$_Debug_range2@PAPAV?$ReceiverImplBase@HUContextMenuParam@DuiLib@@@@@std@@YAXPAPAV?$ReceiverImplBase@HUContextMenuParam@DuiLib@@@@0PB_WIUrandom_access_iterator_tag@0@@Z 00425800 f i UIMenu.obj
 0001:000248b0       ??$_Debug_range@PAPAV?$ObserverImplBase@HUContextMenuParam@DuiLib@@@@@std@@YAXPAPAV?$ObserverImplBase@HUContextMenuParam@DuiLib@@@@0PB_WI@Z 004258b0 f i UIMenu.obj
 0001:00024930       ??$_Debug_range@PAPAV?$ReceiverImplBase@HUContextMenuParam@DuiLib@@@@@std@@YAXPAPAV?$ReceiverImplBase@HUContextMenuParam@DuiLib@@@@0PB_WI@Z 00425930 f i UIMenu.obj
 0001:000249b0       ??$_Destroy_range@U?$_Wrap_alloc@V?$allocator@PAV?$ObserverImplBase@HUContextMenuParam@DuiLib@@@@@std@@@std@@@std@@YAXPAPAV?$ObserverImplBase@HUContextMenuParam@DuiLib@@@@0AAU?$_Wrap_alloc@V?$allocator@PAV?$ObserverImplBase@HUContextMenuParam@DuiLib@@@@@std@@@0@@Z 004259b0 f i UIMenu.obj
 0001:00024a30       ??$_Destroy_range@U?$_Wrap_alloc@V?$allocator@PAV?$ObserverImplBase@HUContextMenuParam@DuiLib@@@@@std@@@std@@@std@@YAXPAPAV?$ObserverImplBase@HUContextMenuParam@DuiLib@@@@0AAU?$_Wrap_alloc@V?$allocator@PAV?$ObserverImplBase@HUContextMenuParam@DuiLib@@@@@std@@@0@U_Scalar_ptr_iterator_tag@0@@Z 00425a30 f i UIMenu.obj
 0001:00024a60       ??$_Destroy_range@U?$_Wrap_alloc@V?$allocator@PAV?$ReceiverImplBase@HUContextMenuParam@DuiLib@@@@@std@@@std@@@std@@YAXPAPAV?$ReceiverImplBase@HUContextMenuParam@DuiLib@@@@0AAU?$_Wrap_alloc@V?$allocator@PAV?$ReceiverImplBase@HUContextMenuParam@DuiLib@@@@@std@@@0@@Z 00425a60 f i UIMenu.obj
 0001:00024ae0       ??$_Destroy_range@U?$_Wrap_alloc@V?$allocator@PAV?$ReceiverImplBase@HUContextMenuParam@DuiLib@@@@@std@@@std@@@std@@YAXPAPAV?$ReceiverImplBase@HUContextMenuParam@DuiLib@@@@0AAU?$_Wrap_alloc@V?$allocator@PAV?$ReceiverImplBase@HUContextMenuParam@DuiLib@@@@@std@@@0@U_Scalar_ptr_iterator_tag@0@@Z 00425ae0 f i UIMenu.obj
 0001:00024b10       ??$_Equal@V?$_Vector_iterator@V?$_Vector_val@U?$_Simple_types@PAV?$ReceiverImplBase@HUContextMenuParam@DuiLib@@@@@std@@@std@@@std@@U?$iterator@Urandom_access_iterator_tag@std@@PAV?$ReceiverImplBase@HUContextMenuParam@DuiLib@@@@HPAPAV3@AAPAV3@@2@@?$_Revranit@V?$_Vector_iterator@V?$_Vector_val@U?$_Simple_types@PAV?$ReceiverImplBase@HUContextMenuParam@DuiLib@@@@@std@@@std@@@std@@U?$iterator@Urandom_access_iterator_tag@std@@PAV?$ReceiverImplBase@HUContextMenuParam@DuiLib@@@@HPAPAV3@AAPAV3@@2@@std@@QBE_NABV01@@Z 00425b10 f i UIMenu.obj
 0001:00024c00       ??$_Iter_cat@PAPAV?$ObserverImplBase@HUContextMenuParam@DuiLib@@@@@std@@YA?AUrandom_access_iterator_tag@0@ABQAPAV?$ObserverImplBase@HUContextMenuParam@DuiLib@@@@@Z 00425c00 f i UIMenu.obj
 0001:00024c80       ??$_Iter_cat@PAPAV?$ReceiverImplBase@HUContextMenuParam@DuiLib@@@@@std@@YA?AUrandom_access_iterator_tag@0@ABQAPAV?$ReceiverImplBase@HUContextMenuParam@DuiLib@@@@@Z 00425c80 f i UIMenu.obj
 0001:00024d00       ??$_Move@PAPAV?$ReceiverImplBase@HUContextMenuParam@DuiLib@@@@PAPAV1@@std@@YAPAPAV?$ReceiverImplBase@HUContextMenuParam@DuiLib@@@@PAPAV1@00@Z 00425d00 f i UIMenu.obj
 0001:00024d80       ??$_Move@PAPAV?$ReceiverImplBase@HUContextMenuParam@DuiLib@@@@PAPAV1@@std@@YAPAPAV?$ReceiverImplBase@HUContextMenuParam@DuiLib@@@@PAPAV1@00U_Scalar_ptr_iterator_tag@0@@Z 00425d80 f i UIMenu.obj
 0001:00024e10       ??$_Ptr_cat@PAV?$ObserverImplBase@HUContextMenuParam@DuiLib@@@@PAV1@@std@@YA?AU_Scalar_ptr_iterator_tag@0@PAPAV?$ObserverImplBase@HUContextMenuParam@DuiLib@@@@0@Z 00425e10 f i UIMenu.obj
 0001:00024e80       ??$_Ptr_cat@PAV?$ReceiverImplBase@HUContextMenuParam@DuiLib@@@@PAV1@@std@@YA?AU_Scalar_ptr_iterator_tag@0@PAPAV?$ReceiverImplBase@HUContextMenuParam@DuiLib@@@@0@Z 00425e80 f i UIMenu.obj
 0001:00024ef0       ??$_Rechecked@PAPAV?$ObserverImplBase@HUContextMenuParam@DuiLib@@@@PAPAV1@@std@@YAAAPAPAV?$ObserverImplBase@HUContextMenuParam@DuiLib@@@@AAPAPAV1@PAPAV1@@Z 00425ef0 f i UIMenu.obj
 0001:00024f30       ??$_Rechecked@PAPAV?$ReceiverImplBase@HUContextMenuParam@DuiLib@@@@PAPAV1@@std@@YAAAPAPAV?$ReceiverImplBase@HUContextMenuParam@DuiLib@@@@AAPAPAV1@PAPAV1@@Z 00425f30 f i UIMenu.obj
 0001:00024f70       ??$_Umove@PAPAV?$ObserverImplBase@HUContextMenuParam@DuiLib@@@@@?$vector@PAV?$ObserverImplBase@HUContextMenuParam@DuiLib@@@@V?$allocator@PAV?$ObserverImplBase@HUContextMenuParam@DuiLib@@@@@std@@@std@@IAEPAPAV?$ObserverImplBase@HUContextMenuParam@DuiLib@@@@PAPAV2@00@Z 00425f70 f i UIMenu.obj
 0001:00025020       ??$_Umove@PAPAV?$ReceiverImplBase@HUContextMenuParam@DuiLib@@@@@?$vector@PAV?$ReceiverImplBase@HUContextMenuParam@DuiLib@@@@V?$allocator@PAV?$ReceiverImplBase@HUContextMenuParam@DuiLib@@@@@std@@@std@@IAEPAPAV?$ReceiverImplBase@HUContextMenuParam@DuiLib@@@@PAPAV2@00@Z 00426020 f i UIMenu.obj
 0001:000250d0       ??$_Unchecked@PAPAV?$ObserverImplBase@HUContextMenuParam@DuiLib@@@@@std@@YAPAPAV?$ObserverImplBase@HUContextMenuParam@DuiLib@@@@PAPAV1@@Z 004260d0 f i UIMenu.obj
 0001:00025110       ??$_Unchecked@PAPAV?$ReceiverImplBase@HUContextMenuParam@DuiLib@@@@@std@@YAPAPAV?$ReceiverImplBase@HUContextMenuParam@DuiLib@@@@PAPAV1@@Z 00426110 f i UIMenu.obj
 0001:00025150       ??$_Uninit_move@PAPAV?$ObserverImplBase@HUContextMenuParam@DuiLib@@@@PAPAV1@U?$_Wrap_alloc@V?$allocator@PAV?$ObserverImplBase@HUContextMenuParam@DuiLib@@@@@std@@@std@@@std@@YAPAPAV?$ObserverImplBase@HUContextMenuParam@DuiLib@@@@PAPAV1@00AAU?$_Wrap_alloc@V?$allocator@PAV?$ObserverImplBase@HUContextMenuParam@DuiLib@@@@@std@@@0@@Z 00426150 f i UIMenu.obj
 0001:000251f0       ??$_Uninit_move@PAPAV?$ReceiverImplBase@HUContextMenuParam@DuiLib@@@@PAPAV1@U?$_Wrap_alloc@V?$allocator@PAV?$ReceiverImplBase@HUContextMenuParam@DuiLib@@@@@std@@@std@@@std@@YAPAPAV?$ReceiverImplBase@HUContextMenuParam@DuiLib@@@@PAPAV1@00AAU?$_Wrap_alloc@V?$allocator@PAV?$ReceiverImplBase@HUContextMenuParam@DuiLib@@@@@std@@@0@@Z 004261f0 f i UIMenu.obj
 0001:00025290       ??$_Uninit_move@PAV?$ObserverImplBase@HUContextMenuParam@DuiLib@@@@PAV1@PAV1@@std@@YAPAPAV?$ObserverImplBase@HUContextMenuParam@DuiLib@@@@PAPAV1@00AAU?$_Wrap_alloc@V?$allocator@PAV?$ObserverImplBase@HUContextMenuParam@DuiLib@@@@@std@@@0@0U_Scalar_ptr_iterator_tag@0@@Z 00426290 f i UIMenu.obj
 0001:00025350       ??$_Uninit_move@PAV?$ReceiverImplBase@HUContextMenuParam@DuiLib@@@@PAV1@PAV1@@std@@YAPAPAV?$ReceiverImplBase@HUContextMenuParam@DuiLib@@@@PAPAV1@00AAU?$_Wrap_alloc@V?$allocator@PAV?$ReceiverImplBase@HUContextMenuParam@DuiLib@@@@@std@@@0@0U_Scalar_ptr_iterator_tag@0@@Z 00426350 f i UIMenu.obj
 0001:00025410       ??$_Uninitialized_move@PAPAV?$ObserverImplBase@HUContextMenuParam@DuiLib@@@@PAPAV1@U?$_Wrap_alloc@V?$allocator@PAV?$ObserverImplBase@HUContextMenuParam@DuiLib@@@@@std@@@std@@@std@@YAPAPAV?$ObserverImplBase@HUContextMenuParam@DuiLib@@@@PAPAV1@00AAU?$_Wrap_alloc@V?$allocator@PAV?$ObserverImplBase@HUContextMenuParam@DuiLib@@@@@std@@@0@@Z 00426410 f i UIMenu.obj
 0001:000254b0       ??$_Uninitialized_move@PAPAV?$ReceiverImplBase@HUContextMenuParam@DuiLib@@@@PAPAV1@U?$_Wrap_alloc@V?$allocator@PAV?$ReceiverImplBase@HUContextMenuParam@DuiLib@@@@@std@@@std@@@std@@YAPAPAV?$ReceiverImplBase@HUContextMenuParam@DuiLib@@@@PAPAV1@00AAU?$_Wrap_alloc@V?$allocator@PAV?$ReceiverImplBase@HUContextMenuParam@DuiLib@@@@@std@@@0@@Z 004264b0 f i UIMenu.obj
 0001:00025550       ??$_Val_type@PAPAV?$ObserverImplBase@HUContextMenuParam@DuiLib@@@@@std@@YAPAPAV?$ObserverImplBase@HUContextMenuParam@DuiLib@@@@PAPAV1@@Z 00426550 f i UIMenu.obj
 0001:00025580       ??$_Val_type@PAPAV?$ReceiverImplBase@HUContextMenuParam@DuiLib@@@@@std@@YAPAPAV?$ReceiverImplBase@HUContextMenuParam@DuiLib@@@@PAPAV1@@Z 00426580 f i UIMenu.obj
 0001:000255b0       ??$addressof@QAV?$ObserverImplBase@HUContextMenuParam@DuiLib@@@@@std@@YAPBQAV?$ObserverImplBase@HUContextMenuParam@DuiLib@@@@ABQAV1@@Z 004265b0 f i UIMenu.obj
 0001:000255f0       ??$addressof@QAV?$ReceiverImplBase@HUContextMenuParam@DuiLib@@@@@std@@YAPBQAV?$ReceiverImplBase@HUContextMenuParam@DuiLib@@@@ABQAV1@@Z 004265f0 f i UIMenu.obj
 0001:00025630       ??$construct@PAV?$ObserverImplBase@HUContextMenuParam@DuiLib@@@@AAPAV1@@?$_Wrap_alloc@V?$allocator@PAV?$ObserverImplBase@HUContextMenuParam@DuiLib@@@@@std@@@std@@QAEXPAPAV?$ObserverImplBase@HUContextMenuParam@DuiLib@@@@AAPAV2@@Z 00426630 f i UIMenu.obj
 0001:000256a0       ??$construct@PAV?$ObserverImplBase@HUContextMenuParam@DuiLib@@@@AAPAV1@@?$allocator@PAV?$ObserverImplBase@HUContextMenuParam@DuiLib@@@@@std@@QAEXPAPAV?$ObserverImplBase@HUContextMenuParam@DuiLib@@@@AAPAV2@@Z 004266a0 f i UIMenu.obj
 0001:000257a0       ??$construct@PAV?$ObserverImplBase@HUContextMenuParam@DuiLib@@@@AAPAV1@@?$allocator_traits@V?$allocator@PAV?$ObserverImplBase@HUContextMenuParam@DuiLib@@@@@std@@@std@@SAXAAV?$allocator@PAV?$ObserverImplBase@HUContextMenuParam@DuiLib@@@@@1@PAPAV?$ObserverImplBase@HUContextMenuParam@DuiLib@@@@AAPAV3@@Z 004267a0 f i UIMenu.obj
 0001:00025800       ??$construct@PAV?$ObserverImplBase@HUContextMenuParam@DuiLib@@@@ABQAV1@@?$_Wrap_alloc@V?$allocator@PAV?$ObserverImplBase@HUContextMenuParam@DuiLib@@@@@std@@@std@@QAEXPAPAV?$ObserverImplBase@HUContextMenuParam@DuiLib@@@@ABQAV2@@Z 00426800 f i UIMenu.obj
 0001:00025870       ??$construct@PAV?$ObserverImplBase@HUContextMenuParam@DuiLib@@@@ABQAV1@@?$allocator_traits@V?$allocator@PAV?$ObserverImplBase@HUContextMenuParam@DuiLib@@@@@std@@@std@@SAXAAV?$allocator@PAV?$ObserverImplBase@HUContextMenuParam@DuiLib@@@@@1@PAPAV?$ObserverImplBase@HUContextMenuParam@DuiLib@@@@ABQAV3@@Z 00426870 f i UIMenu.obj
 0001:000258d0       ??$construct@PAV?$ReceiverImplBase@HUContextMenuParam@DuiLib@@@@AAPAV1@@?$_Wrap_alloc@V?$allocator@PAV?$ReceiverImplBase@HUContextMenuParam@DuiLib@@@@@std@@@std@@QAEXPAPAV?$ReceiverImplBase@HUContextMenuParam@DuiLib@@@@AAPAV2@@Z 004268d0 f i UIMenu.obj
 0001:00025940       ??$construct@PAV?$ReceiverImplBase@HUContextMenuParam@DuiLib@@@@AAPAV1@@?$allocator@PAV?$ReceiverImplBase@HUContextMenuParam@DuiLib@@@@@std@@QAEXPAPAV?$ReceiverImplBase@HUContextMenuParam@DuiLib@@@@AAPAV2@@Z 00426940 f i UIMenu.obj
 0001:00025a40       ??$construct@PAV?$ReceiverImplBase@HUContextMenuParam@DuiLib@@@@AAPAV1@@?$allocator_traits@V?$allocator@PAV?$ReceiverImplBase@HUContextMenuParam@DuiLib@@@@@std@@@std@@SAXAAV?$allocator@PAV?$ReceiverImplBase@HUContextMenuParam@DuiLib@@@@@1@PAPAV?$ReceiverImplBase@HUContextMenuParam@DuiLib@@@@AAPAV3@@Z 00426a40 f i UIMenu.obj
 0001:00025aa0       ??$construct@PAV?$ReceiverImplBase@HUContextMenuParam@DuiLib@@@@ABQAV1@@?$_Wrap_alloc@V?$allocator@PAV?$ReceiverImplBase@HUContextMenuParam@DuiLib@@@@@std@@@std@@QAEXPAPAV?$ReceiverImplBase@HUContextMenuParam@DuiLib@@@@ABQAV2@@Z 00426aa0 f i UIMenu.obj
 0001:00025b10       ??$construct@PAV?$ReceiverImplBase@HUContextMenuParam@DuiLib@@@@ABQAV1@@?$allocator_traits@V?$allocator@PAV?$ReceiverImplBase@HUContextMenuParam@DuiLib@@@@@std@@@std@@SAXAAV?$allocator@PAV?$ReceiverImplBase@HUContextMenuParam@DuiLib@@@@@1@PAPAV?$ReceiverImplBase@HUContextMenuParam@DuiLib@@@@ABQAV3@@Z 00426b10 f i UIMenu.obj
 0001:00025b70       ??$forward@AAPAV?$ObserverImplBase@HUContextMenuParam@DuiLib@@@@@std@@YAAAPAV?$ObserverImplBase@HUContextMenuParam@DuiLib@@@@AAPAV1@@Z 00426b70 f i UIMenu.obj
 0001:00025bb0       ??$forward@AAPAV?$ReceiverImplBase@HUContextMenuParam@DuiLib@@@@@std@@YAAAPAV?$ReceiverImplBase@HUContextMenuParam@DuiLib@@@@AAPAV1@@Z 00426bb0 f i UIMenu.obj
 0001:00025bf0       ??$forward@ABQAV?$ObserverImplBase@HUContextMenuParam@DuiLib@@@@@std@@YAABQAV?$ObserverImplBase@HUContextMenuParam@DuiLib@@@@ABQAV1@@Z 00426bf0 f i UIMenu.obj
 0001:00025c30       ??$forward@ABQAV?$ReceiverImplBase@HUContextMenuParam@DuiLib@@@@@std@@YAABQAV?$ReceiverImplBase@HUContextMenuParam@DuiLib@@@@ABQAV1@@Z 00426c30 f i UIMenu.obj
 0001:00025c70       ??0?$Iterator@HUContextMenuParam@DuiLib@@@?$ObserverImpl@HUContextMenuParam@DuiLib@@@@QAE@AAV1@@Z 00426c70 f i UIMenu.obj
 0001:00025cd0       ??0?$ObserverImpl@HUContextMenuParam@DuiLib@@@@QAE@XZ 00426cd0 f i UIMenu.obj
 0001:00025d40       ??0?$ObserverImplBase@HUContextMenuParam@DuiLib@@@@QAE@XZ 00426d40 f i UIMenu.obj
 0001:00025d90       ??0?$ReceiverImpl@HUContextMenuParam@DuiLib@@@@QAE@XZ 00426d90 f i UIMenu.obj
 0001:00025e00       ??0?$ReceiverImplBase@HUContextMenuParam@DuiLib@@@@QAE@XZ 00426e00 f i UIMenu.obj
 0001:00025e50       ??0?$_Iterator012@Urandom_access_iterator_tag@std@@PAV?$ObserverImplBase@HUContextMenuParam@DuiLib@@@@HPBQAV3@ABQAV3@U_Iterator_base12@2@@std@@QAE@XZ 00426e50 f i UIMenu.obj
 0001:00025eb0       ??0?$_Iterator012@Urandom_access_iterator_tag@std@@PAV?$ReceiverImplBase@HUContextMenuParam@DuiLib@@@@HPBQAV3@ABQAV3@U_Iterator_base12@2@@std@@QAE@ABU01@@Z 00426eb0 f i UIMenu.obj
 0001:00025f10       ??0?$_Iterator012@Urandom_access_iterator_tag@std@@PAV?$ReceiverImplBase@HUContextMenuParam@DuiLib@@@@HPBQAV3@ABQAV3@U_Iterator_base12@2@@std@@QAE@XZ 00426f10 f i UIMenu.obj
 0001:00025f70       ??0?$_Revranit@V?$_Vector_iterator@V?$_Vector_val@U?$_Simple_types@PAV?$ReceiverImplBase@HUContextMenuParam@DuiLib@@@@@std@@@std@@@std@@U?$iterator@Urandom_access_iterator_tag@std@@PAV?$ReceiverImplBase@HUContextMenuParam@DuiLib@@@@HPAPAV3@AAPAV3@@2@@std@@QAE@ABV01@@Z 00426f70 f i UIMenu.obj
 0001:00025fd0       ??0?$_Revranit@V?$_Vector_iterator@V?$_Vector_val@U?$_Simple_types@PAV?$ReceiverImplBase@HUContextMenuParam@DuiLib@@@@@std@@@std@@@std@@U?$iterator@Urandom_access_iterator_tag@std@@PAV?$ReceiverImplBase@HUContextMenuParam@DuiLib@@@@HPAPAV3@AAPAV3@@2@@std@@QAE@V?$_Vector_iterator@V?$_Vector_val@U?$_Simple_types@PAV?$ReceiverImplBase@HUContextMenuParam@DuiLib@@@@@std@@@std@@@1@@Z 00426fd0 f i UIMenu.obj
 0001:00026080       ??0?$_Vector_alloc@$0A@U?$_Vec_base_types@PAV?$ObserverImplBase@HUContextMenuParam@DuiLib@@@@V?$allocator@PAV?$ObserverImplBase@HUContextMenuParam@DuiLib@@@@@std@@@std@@@std@@QAE@ABV?$allocator@PAV?$ObserverImplBase@HUContextMenuParam@DuiLib@@@@@1@@Z 00427080 f i UIMenu.obj
 0001:00026130       ??0?$_Vector_alloc@$0A@U?$_Vec_base_types@PAV?$ReceiverImplBase@HUContextMenuParam@DuiLib@@@@V?$allocator@PAV?$ReceiverImplBase@HUContextMenuParam@DuiLib@@@@@std@@@std@@@std@@QAE@ABV?$allocator@PAV?$ReceiverImplBase@HUContextMenuParam@DuiLib@@@@@1@@Z 00427130 f i UIMenu.obj
 0001:000261e0       ??0?$_Vector_const_iterator@V?$_Vector_val@U?$_Simple_types@PAV?$ObserverImplBase@HUContextMenuParam@DuiLib@@@@@std@@@std@@@std@@QAE@PAPAV?$ObserverImplBase@HUContextMenuParam@DuiLib@@@@PBU_Container_base12@1@@Z 004271e0 f i UIMenu.obj
 0001:000262a0       ??0?$_Vector_const_iterator@V?$_Vector_val@U?$_Simple_types@PAV?$ReceiverImplBase@HUContextMenuParam@DuiLib@@@@@std@@@std@@@std@@QAE@ABV01@@Z 004272a0 f i UIMenu.obj
 0001:00026310       ??0?$_Vector_const_iterator@V?$_Vector_val@U?$_Simple_types@PAV?$ReceiverImplBase@HUContextMenuParam@DuiLib@@@@@std@@@std@@@std@@QAE@PAPAV?$ReceiverImplBase@HUContextMenuParam@DuiLib@@@@PBU_Container_base12@1@@Z 00427310 f i UIMenu.obj
 0001:000263d0       ??0?$_Vector_iterator@V?$_Vector_val@U?$_Simple_types@PAV?$ObserverImplBase@HUContextMenuParam@DuiLib@@@@@std@@@std@@@std@@QAE@PAPAV?$ObserverImplBase@HUContextMenuParam@DuiLib@@@@PBU_Container_base12@1@@Z 004273d0 f i UIMenu.obj
 0001:00026430       ??0?$_Vector_iterator@V?$_Vector_val@U?$_Simple_types@PAV?$ReceiverImplBase@HUContextMenuParam@DuiLib@@@@@std@@@std@@@std@@QAE@ABV01@@Z 00427430 f i UIMenu.obj
 0001:00026490       ??0?$_Vector_iterator@V?$_Vector_val@U?$_Simple_types@PAV?$ReceiverImplBase@HUContextMenuParam@DuiLib@@@@@std@@@std@@@std@@QAE@PAPAV?$ReceiverImplBase@HUContextMenuParam@DuiLib@@@@PBU_Container_base12@1@@Z 00427490 f i UIMenu.obj
 0001:000264f0       ??0?$_Vector_val@U?$_Simple_types@PAV?$ObserverImplBase@HUContextMenuParam@DuiLib@@@@@std@@@std@@QAE@XZ 004274f0 f i UIMenu.obj
 0001:00026580       ??0?$_Vector_val@U?$_Simple_types@PAV?$ReceiverImplBase@HUContextMenuParam@DuiLib@@@@@std@@@std@@QAE@XZ 00427580 f i UIMenu.obj
 0001:00026610       ??0?$_Wrap_alloc@V?$allocator@PAV?$ObserverImplBase@HUContextMenuParam@DuiLib@@@@@std@@@std@@QAE@XZ 00427610 f i UIMenu.obj
 0001:00026670       ??0?$_Wrap_alloc@V?$allocator@PAV?$ReceiverImplBase@HUContextMenuParam@DuiLib@@@@@std@@@std@@QAE@XZ 00427670 f i UIMenu.obj
 0001:000266d0       ??0?$allocator@PAV?$ObserverImplBase@HUContextMenuParam@DuiLib@@@@@std@@QAE@XZ 004276d0 f i UIMenu.obj
 0001:00026710       ??0?$allocator@PAV?$ReceiverImplBase@HUContextMenuParam@DuiLib@@@@@std@@QAE@XZ 00427710 f i UIMenu.obj
 0001:00026750       ??0?$reverse_iterator@V?$_Vector_iterator@V?$_Vector_val@U?$_Simple_types@PAV?$ReceiverImplBase@HUContextMenuParam@DuiLib@@@@@std@@@std@@@std@@@std@@QAE@ABV01@@Z 00427750 f i UIMenu.obj
 0001:000267b0       ??0?$reverse_iterator@V?$_Vector_iterator@V?$_Vector_val@U?$_Simple_types@PAV?$ReceiverImplBase@HUContextMenuParam@DuiLib@@@@@std@@@std@@@std@@@std@@QAE@V?$_Vector_iterator@V?$_Vector_val@U?$_Simple_types@PAV?$ReceiverImplBase@HUContextMenuParam@DuiLib@@@@@std@@@std@@@1@@Z 004277b0 f i UIMenu.obj
 0001:00026880       ??0?$vector@PAV?$ObserverImplBase@HUContextMenuParam@DuiLib@@@@V?$allocator@PAV?$ObserverImplBase@HUContextMenuParam@DuiLib@@@@@std@@@std@@QAE@XZ 00427880 f i UIMenu.obj
 0001:000268f0       ??0?$vector@PAV?$ReceiverImplBase@HUContextMenuParam@DuiLib@@@@V?$allocator@PAV?$ReceiverImplBase@HUContextMenuParam@DuiLib@@@@@std@@@std@@QAE@XZ 004278f0 f i UIMenu.obj
 0001:00026960       ??0CMenuBuilderCallback@DuiLib@@QAE@XZ 00427960 f i UIMenu.obj
 0001:000269c0       ??0CMenuElementUI@DuiLib@@QAE@XZ 004279c0 f   UIMenu.obj
 0001:00026b10       ??0CMenuUI@DuiLib@@QAE@XZ  00427b10 f   UIMenu.obj
 0001:00026c60       ??0CMenuWnd@DuiLib@@QAE@PAUHWND__@@@Z 00427c60 f   UIMenu.obj
 0001:00026dc0       ??0IDialogBuilderCallback@DuiLib@@QAE@XZ 00427dc0 f i UIMenu.obj
 0001:00026e10       ??1?$ObserverImpl@HUContextMenuParam@DuiLib@@@@UAE@XZ 00427e10 f i UIMenu.obj
 0001:00026e70       ??1?$ReceiverImpl@HUContextMenuParam@DuiLib@@@@UAE@XZ 00427e70 f i UIMenu.obj
 0001:00026ed0       ??1?$_Iterator012@Urandom_access_iterator_tag@std@@PAV?$ObserverImplBase@HUContextMenuParam@DuiLib@@@@HPBQAV3@ABQAV3@U_Iterator_base12@2@@std@@QAE@XZ 00427ed0 f i UIMenu.obj
 0001:00026f20       ??1?$_Iterator012@Urandom_access_iterator_tag@std@@PAV?$ReceiverImplBase@HUContextMenuParam@DuiLib@@@@HPBQAV3@ABQAV3@U_Iterator_base12@2@@std@@QAE@XZ 00427f20 f i UIMenu.obj
 0001:00026f70       ??1?$_Revranit@V?$_Vector_iterator@V?$_Vector_val@U?$_Simple_types@PAV?$ReceiverImplBase@HUContextMenuParam@DuiLib@@@@@std@@@std@@@std@@U?$iterator@Urandom_access_iterator_tag@std@@PAV?$ReceiverImplBase@HUContextMenuParam@DuiLib@@@@HPAPAV3@AAPAV3@@2@@std@@QAE@XZ 00427f70 f i UIMenu.obj
 0001:00026fc0       ??1?$_Vector_alloc@$0A@U?$_Vec_base_types@PAV?$ObserverImplBase@HUContextMenuParam@DuiLib@@@@V?$allocator@PAV?$ObserverImplBase@HUContextMenuParam@DuiLib@@@@@std@@@std@@@std@@QAE@XZ 00427fc0 f i UIMenu.obj
 0001:00027020       ??1?$_Vector_alloc@$0A@U?$_Vec_base_types@PAV?$ReceiverImplBase@HUContextMenuParam@DuiLib@@@@V?$allocator@PAV?$ReceiverImplBase@HUContextMenuParam@DuiLib@@@@@std@@@std@@@std@@QAE@XZ 00428020 f i UIMenu.obj
 0001:00027080       ??1?$_Vector_const_iterator@V?$_Vector_val@U?$_Simple_types@PAV?$ObserverImplBase@HUContextMenuParam@DuiLib@@@@@std@@@std@@@std@@QAE@XZ 00428080 f i UIMenu.obj
 0001:000270d0       ??1?$_Vector_const_iterator@V?$_Vector_val@U?$_Simple_types@PAV?$ReceiverImplBase@HUContextMenuParam@DuiLib@@@@@std@@@std@@@std@@QAE@XZ 004280d0 f i UIMenu.obj
 0001:00027120       ??1?$_Vector_iterator@V?$_Vector_val@U?$_Simple_types@PAV?$ObserverImplBase@HUContextMenuParam@DuiLib@@@@@std@@@std@@@std@@QAE@XZ 00428120 f i UIMenu.obj
 0001:00027170       ??1?$_Vector_iterator@V?$_Vector_val@U?$_Simple_types@PAV?$ReceiverImplBase@HUContextMenuParam@DuiLib@@@@@std@@@std@@@std@@QAE@XZ 00428170 f i UIMenu.obj
 0001:000271c0       ??1?$_Vector_val@U?$_Simple_types@PAV?$ObserverImplBase@HUContextMenuParam@DuiLib@@@@@std@@@std@@QAE@XZ 004281c0 f i UIMenu.obj
 0001:00027220       ??1?$_Vector_val@U?$_Simple_types@PAV?$ReceiverImplBase@HUContextMenuParam@DuiLib@@@@@std@@@std@@QAE@XZ 00428220 f i UIMenu.obj
 0001:00027280       ??1?$reverse_iterator@V?$_Vector_iterator@V?$_Vector_val@U?$_Simple_types@PAV?$ReceiverImplBase@HUContextMenuParam@DuiLib@@@@@std@@@std@@@std@@@std@@QAE@XZ 00428280 f i UIMenu.obj
 0001:000272d0       ??1?$vector@PAV?$ObserverImplBase@HUContextMenuParam@DuiLib@@@@V?$allocator@PAV?$ObserverImplBase@HUContextMenuParam@DuiLib@@@@@std@@@std@@QAE@XZ 004282d0 f i UIMenu.obj
 0001:00027330       ??1?$vector@PAV?$ReceiverImplBase@HUContextMenuParam@DuiLib@@@@V?$allocator@PAV?$ReceiverImplBase@HUContextMenuParam@DuiLib@@@@@std@@@std@@QAE@XZ 00428330 f i UIMenu.obj
 0001:00027390       ??1CMenuElementUI@DuiLib@@UAE@XZ 00428390 f   UIMenu.obj
 0001:00027480       ??1CMenuUI@DuiLib@@UAE@XZ  00428480 f   UIMenu.obj
 0001:00027510       ??1CMenuWnd@DuiLib@@UAE@XZ 00428510 f i UIMenu.obj
 0001:000275f0       ??8?$_Vector_const_iterator@V?$_Vector_val@U?$_Simple_types@PAV?$ObserverImplBase@HUContextMenuParam@DuiLib@@@@@std@@@std@@@std@@QBE_NABV01@@Z 004285f0 f i UIMenu.obj
 0001:00027680       ??8?$_Vector_const_iterator@V?$_Vector_val@U?$_Simple_types@PAV?$ReceiverImplBase@HUContextMenuParam@DuiLib@@@@@std@@@std@@@std@@QBE_NABV01@@Z 00428680 f i UIMenu.obj
 0001:00027710       ??9?$_Vector_const_iterator@V?$_Vector_val@U?$_Simple_types@PAV?$ObserverImplBase@HUContextMenuParam@DuiLib@@@@@std@@@std@@@std@@QBE_NABV01@@Z 00428710 f i UIMenu.obj
 0001:000277a0       ??9?$_Vector_const_iterator@V?$_Vector_val@U?$_Simple_types@PAV?$ReceiverImplBase@HUContextMenuParam@DuiLib@@@@@std@@@std@@@std@@QBE_NABV01@@Z 004287a0 f i UIMenu.obj
 0001:00027830       ??A?$vector@PAV?$ReceiverImplBase@HUContextMenuParam@DuiLib@@@@V?$allocator@PAV?$ReceiverImplBase@HUContextMenuParam@DuiLib@@@@@std@@@std@@QAEAAPAV?$ReceiverImplBase@HUContextMenuParam@DuiLib@@@@I@Z 00428830 f i UIMenu.obj
 0001:00027950       ??D?$_Revranit@V?$_Vector_iterator@V?$_Vector_val@U?$_Simple_types@PAV?$ReceiverImplBase@HUContextMenuParam@DuiLib@@@@@std@@@std@@@std@@U?$iterator@Urandom_access_iterator_tag@std@@PAV?$ReceiverImplBase@HUContextMenuParam@DuiLib@@@@HPAPAV3@AAPAV3@@2@@std@@QBEAAPAV?$ReceiverImplBase@HUContextMenuParam@DuiLib@@@@XZ 00428950 f i UIMenu.obj
 0001:00027a50       ??D?$_Vector_const_iterator@V?$_Vector_val@U?$_Simple_types@PAV?$ObserverImplBase@HUContextMenuParam@DuiLib@@@@@std@@@std@@@std@@QBEABQAV?$ObserverImplBase@HUContextMenuParam@DuiLib@@@@XZ 00428a50 f i UIMenu.obj
 0001:00027b90       ??D?$_Vector_const_iterator@V?$_Vector_val@U?$_Simple_types@PAV?$ReceiverImplBase@HUContextMenuParam@DuiLib@@@@@std@@@std@@@std@@QBEABQAV?$ReceiverImplBase@HUContextMenuParam@DuiLib@@@@XZ 00428b90 f i UIMenu.obj
 0001:00027cd0       ??D?$_Vector_iterator@V?$_Vector_val@U?$_Simple_types@PAV?$ObserverImplBase@HUContextMenuParam@DuiLib@@@@@std@@@std@@@std@@QBEAAPAV?$ObserverImplBase@HUContextMenuParam@DuiLib@@@@XZ 00428cd0 f i UIMenu.obj
 0001:00027d20       ??D?$_Vector_iterator@V?$_Vector_val@U?$_Simple_types@PAV?$ReceiverImplBase@HUContextMenuParam@DuiLib@@@@@std@@@std@@@std@@QBEAAPAV?$ReceiverImplBase@HUContextMenuParam@DuiLib@@@@XZ 00428d20 f i UIMenu.obj
 0001:00027d70       ??E?$_Revranit@V?$_Vector_iterator@V?$_Vector_val@U?$_Simple_types@PAV?$ReceiverImplBase@HUContextMenuParam@DuiLib@@@@@std@@@std@@@std@@U?$iterator@Urandom_access_iterator_tag@std@@PAV?$ReceiverImplBase@HUContextMenuParam@DuiLib@@@@HPAPAV3@AAPAV3@@2@@std@@QAEAAV01@XZ 00428d70 f i UIMenu.obj
 0001:00027dd0       ??E?$_Vector_const_iterator@V?$_Vector_val@U?$_Simple_types@PAV?$ObserverImplBase@HUContextMenuParam@DuiLib@@@@@std@@@std@@@std@@QAEAAV01@XZ 00428dd0 f i UIMenu.obj
 0001:00027f00       ??E?$_Vector_const_iterator@V?$_Vector_val@U?$_Simple_types@PAV?$ReceiverImplBase@HUContextMenuParam@DuiLib@@@@@std@@@std@@@std@@QAEAAV01@XZ 00428f00 f i UIMenu.obj
 0001:00028030       ??E?$_Vector_iterator@V?$_Vector_val@U?$_Simple_types@PAV?$ObserverImplBase@HUContextMenuParam@DuiLib@@@@@std@@@std@@@std@@QAEAAV01@XZ 00429030 f i UIMenu.obj
 0001:00028090       ??E?$_Vector_iterator@V?$_Vector_val@U?$_Simple_types@PAV?$ReceiverImplBase@HUContextMenuParam@DuiLib@@@@@std@@@std@@@std@@QAEAAV01@XZ 00429090 f i UIMenu.obj
 0001:000280f0       ??E?$reverse_iterator@V?$_Vector_iterator@V?$_Vector_val@U?$_Simple_types@PAV?$ReceiverImplBase@HUContextMenuParam@DuiLib@@@@@std@@@std@@@std@@@std@@QAEAAV01@XZ 004290f0 f i UIMenu.obj
 0001:00028150       ??F?$_Vector_const_iterator@V?$_Vector_val@U?$_Simple_types@PAV?$ReceiverImplBase@HUContextMenuParam@DuiLib@@@@@std@@@std@@@std@@QAEAAV01@XZ 00429150 f i UIMenu.obj
 0001:00028290       ??F?$_Vector_iterator@V?$_Vector_val@U?$_Simple_types@PAV?$ReceiverImplBase@HUContextMenuParam@DuiLib@@@@@std@@@std@@@std@@QAEAAV01@XZ 00429290 f i UIMenu.obj
 0001:000282e2       ??_ECMenuWnd@DuiLib@@WBA@AEPAXI@Z 004292e2 f i UIMenu.obj
 0001:000282f0       ??_E?$ObserverImpl@HUContextMenuParam@DuiLib@@@@UAEPAXI@Z 004292f0 f i UIMenu.obj
 0001:000282f0       ??_G?$ObserverImpl@HUContextMenuParam@DuiLib@@@@UAEPAXI@Z 004292f0 f i UIMenu.obj
 0001:00028360       ??_G?$ReceiverImpl@HUContextMenuParam@DuiLib@@@@UAEPAXI@Z 00429360 f i UIMenu.obj
 0001:00028360       ??_E?$ReceiverImpl@HUContextMenuParam@DuiLib@@@@UAEPAXI@Z 00429360 f i UIMenu.obj
 0001:000283d0       ??_GCMenuElementUI@DuiLib@@UAEPAXI@Z 004293d0 f i UIMenu.obj
 0001:000283d0       ??_ECMenuElementUI@DuiLib@@UAEPAXI@Z 004293d0 f i UIMenu.obj
 0001:00028440       ??_GCMenuUI@DuiLib@@UAEPAXI@Z 00429440 f i UIMenu.obj
 0001:00028440       ??_ECMenuUI@DuiLib@@UAEPAXI@Z 00429440 f i UIMenu.obj
 0001:000284b0       ??_ECMenuWnd@DuiLib@@UAEPAXI@Z 004294b0 f i UIMenu.obj
 0001:000284b0       ??_GCMenuWnd@DuiLib@@UAEPAXI@Z 004294b0 f i UIMenu.obj
 0001:00028520       ?Activate@CMenuElementUI@DuiLib@@UAE_NXZ 00429520 f   UIMenu.obj
 0001:00028910       ?Add@CMenuUI@DuiLib@@UAE_NPAVCControlUI@2@@Z 00429910 f   UIMenu.obj
 0001:00028af0       ?AddAt@CMenuUI@DuiLib@@UAE_NPAVCControlUI@2@H@Z 00429af0 f   UIMenu.obj
 0001:00028cd0       ?AddObserver@?$ReceiverImpl@HUContextMenuParam@DuiLib@@@@UAEXPAV?$ObserverImplBase@HUContextMenuParam@DuiLib@@@@@Z 00429cd0 f i UIMenu.obj
 0001:00028d30       ?AddReceiver@?$ObserverImpl@HUContextMenuParam@DuiLib@@@@UAEXPAV?$ReceiverImplBase@HUContextMenuParam@DuiLib@@@@@Z 00429d30 f i UIMenu.obj
 0001:00028dc0       ?Broadcast@?$ObserverImpl@HUContextMenuParam@DuiLib@@@@UAEHUContextMenuParam@DuiLib@@@Z 00429dc0 f i UIMenu.obj
 0001:00028f90       ?CheckMenuItem@CMenuWnd@DuiLib@@QAEXPB_WH@Z 00429f90 f   UIMenu.obj
 0001:00029020       ?CreateControl@CMenuBuilderCallback@DuiLib@@EAEPAVCControlUI@2@PB_W@Z 0042a020 f i UIMenu.obj
 0001:000291e0       ?CreateMenuWnd@CMenuElementUI@DuiLib@@QAEXXZ 0042a1e0 f   UIMenu.obj
 0001:00029470       ?DoEvent@CMenuElementUI@DuiLib@@UAEXAAUtagTEventUI@2@@Z 0042a470 f   UIMenu.obj
 0001:00029bf0       ?DoEvent@CMenuUI@DuiLib@@UAEXAAUtagTEventUI@2@@Z 0042abf0 f   UIMenu.obj
 0001:00029c52       ?DoEvent@CMenuUI@DuiLib@@WDNE@AEXAAUtagTEventUI@2@@Z 0042ac52 f i UIMenu.obj
 0001:00029c60       ?DoPaint@CMenuElementUI@DuiLib@@UAEXPAUHDC__@@ABUtagRECT@@@Z 0042ac60 f   UIMenu.obj
 0001:00029e80       ?DrawCheckState@CMenuElementUI@DuiLib@@QAEXPAUHDC__@@ABUtagRECT@@@Z 0042ae80 f   UIMenu.obj
 0001:0002a020       ?DrawItemBk@CMenuElementUI@DuiLib@@QAEXPAUHDC__@@ABUtagRECT@@@Z 0042b020 f   UIMenu.obj
 0001:0002a0c0       ?DrawItemText@CMenuElementUI@DuiLib@@UAEXPAUHDC__@@ABUtagRECT@@@Z 0042b0c0 f   UIMenu.obj
 0001:0002a3e0       ?EnableMenuItem@CMenuWnd@DuiLib@@QAEXPB_WH@Z 0042b3e0 f   UIMenu.obj
 0001:0002a4a0       ?EstimateSize@CMenuElementUI@DuiLib@@UAE?AUtagSIZE@@U3@@Z 0042b4a0 f   UIMenu.obj
 0001:0002a980       ?EstimateSize@CMenuUI@DuiLib@@UAE?AUtagSIZE@@U3@@Z 0042b980 f   UIMenu.obj
 0001:0002ab40       ?GetClass@CMenuElementUI@DuiLib@@UBEPB_WXZ 0042bb40 f   UIMenu.obj
 0001:0002ab80       ?GetClass@CMenuUI@DuiLib@@UBEPB_WXZ 0042bb80 f   UIMenu.obj
 0001:0002abc0       ?GetInterface@CMenuElementUI@DuiLib@@UAEPAXPB_W@Z 0042bbc0 f   UIMenu.obj
 0001:0002ac60       ?GetInterface@CMenuUI@DuiLib@@UAEPAXPB_W@Z 0042bc60 f   UIMenu.obj
 0001:0002ad00       ?GetItemIndex@CMenuUI@DuiLib@@UBEHPAVCControlUI@2@@Z 0042bd00 f   UIMenu.obj
 0001:0002ada0       ?GetMenuWnd@CMenuElementUI@DuiLib@@QAEPAVCMenuWnd@2@XZ 0042bda0 f   UIMenu.obj
 0001:0002ade0       ?GetWindowClassName@CMenuWnd@DuiLib@@UBEPB_WXZ 0042bde0 f   UIMenu.obj
 0001:0002ae20       ?HandleMessage@CMenuWnd@DuiLib@@UAEJIIJ@Z 0042be20 f   UIMenu.obj
 0001:0002c660       ?Init@CMenuWnd@DuiLib@@QAEXPAVCMenuElementUI@2@VSTRINGorID@2@PB_WUtagPOINT@@PAVCControlUI@2@@Z 0042d660 f   UIMenu.obj
 0001:0002c910       ?Notify@?$ObserverImpl@HUContextMenuParam@DuiLib@@@@UAEHUContextMenuParam@DuiLib@@@Z 0042d910 f i UIMenu.obj
 0001:0002cae0       ?OnFinalMessage@CMenuWnd@DuiLib@@UAEXPAUHWND__@@@Z 0042dae0 f   UIMenu.obj
 0001:0002cea0       ?RBroadcast@?$ObserverImpl@HUContextMenuParam@DuiLib@@@@UAEHUContextMenuParam@DuiLib@@@Z 0042dea0 f i UIMenu.obj
 0001:0002d070       ?Receive@?$ReceiverImpl@HUContextMenuParam@DuiLib@@@@UAEHUContextMenuParam@DuiLib@@@Z 0042e070 f i UIMenu.obj
 0001:0002d0b0       ?Receive@CMenuWnd@DuiLib@@UAEHUContextMenuParam@2@@Z 0042e0b0 f   UIMenu.obj
 0001:0002d240       ?Remove@CMenuUI@DuiLib@@UAE_NPAVCControlUI@2@@Z 0042e240 f   UIMenu.obj
 0001:0002d2e0       ?RemoveObserver@?$ReceiverImpl@HUContextMenuParam@DuiLib@@@@UAEXXZ 0042e2e0 f i UIMenu.obj
 0001:0002d480       ?RemoveReceiver@?$ObserverImpl@HUContextMenuParam@DuiLib@@@@UAEXPAV?$ReceiverImplBase@HUContextMenuParam@DuiLib@@@@@Z 0042e480 f i UIMenu.obj
 0001:0002d650       ?Respond@?$ReceiverImpl@HUContextMenuParam@DuiLib@@@@UAEHUContextMenuParam@DuiLib@@PAV?$ObserverImplBase@HUContextMenuParam@DuiLib@@@@@Z 0042e650 f i UIMenu.obj
 0001:0002d690       ?SetAttribute@CMenuElementUI@DuiLib@@UAEXPB_W0@Z 0042e690 f   UIMenu.obj
 0001:0002d7d0       ?SetAttribute@CMenuUI@DuiLib@@UAEXPB_W0@Z 0042e7d0 f   UIMenu.obj
 0001:0002d840       ?SetCheckState@CMenuElementUI@DuiLib@@QAEXH@Z 0042e840 f   UIMenu.obj
 0001:0002d890       ?SetItemIndex@CMenuUI@DuiLib@@UAE_NPAVCControlUI@2@H@Z 0042e890 f   UIMenu.obj
 0001:0002d930       ?_Alloc_proxy@?$_Vector_alloc@$0A@U?$_Vec_base_types@PAV?$ObserverImplBase@HUContextMenuParam@DuiLib@@@@V?$allocator@PAV?$ObserverImplBase@HUContextMenuParam@DuiLib@@@@@std@@@std@@@std@@QAEXXZ 0042e930 f i UIMenu.obj
 0001:0002da00       ?_Alloc_proxy@?$_Vector_alloc@$0A@U?$_Vec_base_types@PAV?$ReceiverImplBase@HUContextMenuParam@DuiLib@@@@V?$allocator@PAV?$ReceiverImplBase@HUContextMenuParam@DuiLib@@@@@std@@@std@@@std@@QAEXXZ 0042ea00 f i UIMenu.obj
 0001:0002dad0       ?_Compat@?$_Vector_const_iterator@V?$_Vector_val@U?$_Simple_types@PAV?$ObserverImplBase@HUContextMenuParam@DuiLib@@@@@std@@@std@@@std@@QBEXABV12@@Z 0042ead0 f i UIMenu.obj
 0001:0002dbf0       ?_Compat@?$_Vector_const_iterator@V?$_Vector_val@U?$_Simple_types@PAV?$ReceiverImplBase@HUContextMenuParam@DuiLib@@@@@std@@@std@@@std@@QBEXABV12@@Z 0042ebf0 f i UIMenu.obj
 0001:0002dd10       ?_Destroy@?$vector@PAV?$ObserverImplBase@HUContextMenuParam@DuiLib@@@@V?$allocator@PAV?$ObserverImplBase@HUContextMenuParam@DuiLib@@@@@std@@@std@@IAEXPAPAV?$ObserverImplBase@HUContextMenuParam@DuiLib@@@@0@Z 0042ed10 f i UIMenu.obj
 0001:0002ddc0       ?_Destroy@?$vector@PAV?$ReceiverImplBase@HUContextMenuParam@DuiLib@@@@V?$allocator@PAV?$ReceiverImplBase@HUContextMenuParam@DuiLib@@@@@std@@@std@@IAEXPAPAV?$ReceiverImplBase@HUContextMenuParam@DuiLib@@@@0@Z 0042edc0 f i UIMenu.obj
 0001:0002de70       ?_Free_proxy@?$_Vector_alloc@$0A@U?$_Vec_base_types@PAV?$ObserverImplBase@HUContextMenuParam@DuiLib@@@@V?$allocator@PAV?$ObserverImplBase@HUContextMenuParam@DuiLib@@@@@std@@@std@@@std@@QAEXXZ 0042ee70 f i UIMenu.obj
 0001:0002df50       ?_Free_proxy@?$_Vector_alloc@$0A@U?$_Vec_base_types@PAV?$ReceiverImplBase@HUContextMenuParam@DuiLib@@@@V?$allocator@PAV?$ReceiverImplBase@HUContextMenuParam@DuiLib@@@@@std@@@std@@@std@@QAEXXZ 0042ef50 f i UIMenu.obj
 0001:0002e030       ?_Getal@?$_Vector_alloc@$0A@U?$_Vec_base_types@PAV?$ObserverImplBase@HUContextMenuParam@DuiLib@@@@V?$allocator@PAV?$ObserverImplBase@HUContextMenuParam@DuiLib@@@@@std@@@std@@@std@@QBE?AU?$_Wrap_alloc@V?$allocator@PAV?$ObserverImplBase@HUContextMenuParam@DuiLib@@@@@std@@@2@XZ 0042f030 f i UIMenu.obj
 0001:0002e090       ?_Getal@?$_Vector_alloc@$0A@U?$_Vec_base_types@PAV?$ReceiverImplBase@HUContextMenuParam@DuiLib@@@@V?$allocator@PAV?$ReceiverImplBase@HUContextMenuParam@DuiLib@@@@@std@@@std@@@std@@QBE?AU?$_Wrap_alloc@V?$allocator@PAV?$ReceiverImplBase@HUContextMenuParam@DuiLib@@@@@std@@@2@XZ 0042f090 f i UIMenu.obj
 0001:0002e0f0       ?_Grow_to@?$vector@PAV?$ObserverImplBase@HUContextMenuParam@DuiLib@@@@V?$allocator@PAV?$ObserverImplBase@HUContextMenuParam@DuiLib@@@@@std@@@std@@IBEII@Z 0042f0f0 f i UIMenu.obj
 0001:0002e1a0       ?_Grow_to@?$vector@PAV?$ReceiverImplBase@HUContextMenuParam@DuiLib@@@@V?$allocator@PAV?$ReceiverImplBase@HUContextMenuParam@DuiLib@@@@@std@@@std@@IBEII@Z 0042f1a0 f i UIMenu.obj
 0001:0002e250       ?_Inside@?$vector@PAV?$ObserverImplBase@HUContextMenuParam@DuiLib@@@@V?$allocator@PAV?$ObserverImplBase@HUContextMenuParam@DuiLib@@@@@std@@@std@@IBE_NPBQAV?$ObserverImplBase@HUContextMenuParam@DuiLib@@@@@Z 0042f250 f i UIMenu.obj
 0001:0002e2d0       ?_Inside@?$vector@PAV?$ReceiverImplBase@HUContextMenuParam@DuiLib@@@@V?$allocator@PAV?$ReceiverImplBase@HUContextMenuParam@DuiLib@@@@@std@@@std@@IBE_NPBQAV?$ReceiverImplBase@HUContextMenuParam@DuiLib@@@@@Z 0042f2d0 f i UIMenu.obj
 0001:0002e350       ?_Make_iter@?$vector@PAV?$ReceiverImplBase@HUContextMenuParam@DuiLib@@@@V?$allocator@PAV?$ReceiverImplBase@HUContextMenuParam@DuiLib@@@@@std@@@std@@QBE?AV?$_Vector_iterator@V?$_Vector_val@U?$_Simple_types@PAV?$ReceiverImplBase@HUContextMenuParam@DuiLib@@@@@std@@@std@@@2@V?$_Vector_const_iterator@V?$_Vector_val@U?$_Simple_types@PAV?$ReceiverImplBase@HUContextMenuParam@DuiLib@@@@@std@@@std@@@2@@Z 0042f350 f i UIMenu.obj
 0001:0002e420       ?_Orphan_range@?$vector@PAV?$ObserverImplBase@HUContextMenuParam@DuiLib@@@@V?$allocator@PAV?$ObserverImplBase@HUContextMenuParam@DuiLib@@@@@std@@@std@@IBEXPAPAV?$ObserverImplBase@HUContextMenuParam@DuiLib@@@@0@Z 0042f420 f i UIMenu.obj
 0001:0002e5a0       ?_Orphan_range@?$vector@PAV?$ReceiverImplBase@HUContextMenuParam@DuiLib@@@@V?$allocator@PAV?$ReceiverImplBase@HUContextMenuParam@DuiLib@@@@@std@@@std@@IBEXPAPAV?$ReceiverImplBase@HUContextMenuParam@DuiLib@@@@0@Z 0042f5a0 f i UIMenu.obj
 0001:0002e720       ?_Reallocate@?$vector@PAV?$ObserverImplBase@HUContextMenuParam@DuiLib@@@@V?$allocator@PAV?$ObserverImplBase@HUContextMenuParam@DuiLib@@@@@std@@@std@@IAEXI@Z 0042f720 f i UIMenu.obj
 0001:0002e900       ?_Reallocate@?$vector@PAV?$ReceiverImplBase@HUContextMenuParam@DuiLib@@@@V?$allocator@PAV?$ReceiverImplBase@HUContextMenuParam@DuiLib@@@@@std@@@std@@IAEXI@Z 0042f900 f i UIMenu.obj
 0001:0002eae0       ?_Reserve@?$vector@PAV?$ObserverImplBase@HUContextMenuParam@DuiLib@@@@V?$allocator@PAV?$ObserverImplBase@HUContextMenuParam@DuiLib@@@@@std@@@std@@IAEXI@Z 0042fae0 f i UIMenu.obj
 0001:0002eb90       ?_Reserve@?$vector@PAV?$ReceiverImplBase@HUContextMenuParam@DuiLib@@@@V?$allocator@PAV?$ReceiverImplBase@HUContextMenuParam@DuiLib@@@@@std@@@std@@IAEXI@Z 0042fb90 f i UIMenu.obj
 0001:0002ec40       ?_Tidy@?$vector@PAV?$ObserverImplBase@HUContextMenuParam@DuiLib@@@@V?$allocator@PAV?$ObserverImplBase@HUContextMenuParam@DuiLib@@@@@std@@@std@@IAEXXZ 0042fc40 f i UIMenu.obj
 0001:0002ed20       ?_Tidy@?$vector@PAV?$ReceiverImplBase@HUContextMenuParam@DuiLib@@@@V?$allocator@PAV?$ReceiverImplBase@HUContextMenuParam@DuiLib@@@@@std@@@std@@IAEXXZ 0042fd20 f i UIMenu.obj
 0001:0002ee00       ?_Unused_capacity@?$vector@PAV?$ObserverImplBase@HUContextMenuParam@DuiLib@@@@V?$allocator@PAV?$ObserverImplBase@HUContextMenuParam@DuiLib@@@@@std@@@std@@QBEIXZ 0042fe00 f i UIMenu.obj
 0001:0002ee50       ?_Unused_capacity@?$vector@PAV?$ReceiverImplBase@HUContextMenuParam@DuiLib@@@@V?$allocator@PAV?$ReceiverImplBase@HUContextMenuParam@DuiLib@@@@@std@@@std@@QBEIXZ 0042fe50 f i UIMenu.obj
 0001:0002eea0       ?_Xlen@?$vector@PAV?$ObserverImplBase@HUContextMenuParam@DuiLib@@@@V?$allocator@PAV?$ObserverImplBase@HUContextMenuParam@DuiLib@@@@@std@@@std@@IBEXXZ 0042fea0 f i UIMenu.obj
 0001:0002ef00       ?_Xlen@?$vector@PAV?$ReceiverImplBase@HUContextMenuParam@DuiLib@@@@V?$allocator@PAV?$ReceiverImplBase@HUContextMenuParam@DuiLib@@@@@std@@@std@@IBEXXZ 0042ff00 f i UIMenu.obj
 0001:0002ef60       ?allocate@?$_Wrap_alloc@V?$allocator@PAV?$ObserverImplBase@HUContextMenuParam@DuiLib@@@@@std@@@std@@QAEPAPAV?$ObserverImplBase@HUContextMenuParam@DuiLib@@@@I@Z 0042ff60 f i UIMenu.obj
 0001:0002efc0       ?allocate@?$_Wrap_alloc@V?$allocator@PAV?$ReceiverImplBase@HUContextMenuParam@DuiLib@@@@@std@@@std@@QAEPAPAV?$ReceiverImplBase@HUContextMenuParam@DuiLib@@@@I@Z 0042ffc0 f i UIMenu.obj
 0001:0002f020       ?allocate@?$allocator@PAV?$ObserverImplBase@HUContextMenuParam@DuiLib@@@@@std@@QAEPAPAV?$ObserverImplBase@HUContextMenuParam@DuiLib@@@@I@Z 00430020 f i UIMenu.obj
 0001:0002f080       ?allocate@?$allocator@PAV?$ReceiverImplBase@HUContextMenuParam@DuiLib@@@@@std@@QAEPAPAV?$ReceiverImplBase@HUContextMenuParam@DuiLib@@@@I@Z 00430080 f i UIMenu.obj
 0001:0002f0e0       ?base@?$_Revranit@V?$_Vector_iterator@V?$_Vector_val@U?$_Simple_types@PAV?$ReceiverImplBase@HUContextMenuParam@DuiLib@@@@@std@@@std@@@std@@U?$iterator@Urandom_access_iterator_tag@std@@PAV?$ReceiverImplBase@HUContextMenuParam@DuiLib@@@@HPAPAV3@AAPAV3@@2@@std@@QBE?AV?$_Vector_iterator@V?$_Vector_val@U?$_Simple_types@PAV?$ReceiverImplBase@HUContextMenuParam@DuiLib@@@@@std@@@std@@@2@XZ 004300e0 f i UIMenu.obj
 0001:0002f160       ?begin@?$vector@PAV?$ObserverImplBase@HUContextMenuParam@DuiLib@@@@V?$allocator@PAV?$ObserverImplBase@HUContextMenuParam@DuiLib@@@@@std@@@std@@QAE?AV?$_Vector_iterator@V?$_Vector_val@U?$_Simple_types@PAV?$ObserverImplBase@HUContextMenuParam@DuiLib@@@@@std@@@std@@@2@XZ 00430160 f i UIMenu.obj
 0001:0002f1d0       ?begin@?$vector@PAV?$ReceiverImplBase@HUContextMenuParam@DuiLib@@@@V?$allocator@PAV?$ReceiverImplBase@HUContextMenuParam@DuiLib@@@@@std@@@std@@QAE?AV?$_Vector_iterator@V?$_Vector_val@U?$_Simple_types@PAV?$ReceiverImplBase@HUContextMenuParam@DuiLib@@@@@std@@@std@@@2@XZ 004301d0 f i UIMenu.obj
 0001:0002f240       ?capacity@?$vector@PAV?$ObserverImplBase@HUContextMenuParam@DuiLib@@@@V?$allocator@PAV?$ObserverImplBase@HUContextMenuParam@DuiLib@@@@@std@@@std@@QBEIXZ 00430240 f i UIMenu.obj
 0001:0002f290       ?capacity@?$vector@PAV?$ReceiverImplBase@HUContextMenuParam@DuiLib@@@@V?$allocator@PAV?$ReceiverImplBase@HUContextMenuParam@DuiLib@@@@@std@@@std@@QBEIXZ 00430290 f i UIMenu.obj
 0001:0002f2e0       ?construct@?$allocator@PAV?$ObserverImplBase@HUContextMenuParam@DuiLib@@@@@std@@QAEXPAPAV?$ObserverImplBase@HUContextMenuParam@DuiLib@@@@ABQAV3@@Z 004302e0 f i UIMenu.obj
 0001:0002f380       ?construct@?$allocator@PAV?$ReceiverImplBase@HUContextMenuParam@DuiLib@@@@@std@@QAEXPAPAV?$ReceiverImplBase@HUContextMenuParam@DuiLib@@@@ABQAV3@@Z 00430380 f i UIMenu.obj
 0001:0002f420       ?deallocate@?$_Wrap_alloc@V?$allocator@PAV?$ObserverImplBase@HUContextMenuParam@DuiLib@@@@@std@@@std@@QAEXPAPAV?$ObserverImplBase@HUContextMenuParam@DuiLib@@@@I@Z 00430420 f i UIMenu.obj
 0001:0002f480       ?deallocate@?$_Wrap_alloc@V?$allocator@PAV?$ReceiverImplBase@HUContextMenuParam@DuiLib@@@@@std@@@std@@QAEXPAPAV?$ReceiverImplBase@HUContextMenuParam@DuiLib@@@@I@Z 00430480 f i UIMenu.obj
 0001:0002f4e0       ?deallocate@?$allocator@PAV?$ObserverImplBase@HUContextMenuParam@DuiLib@@@@@std@@QAEXPAPAV?$ObserverImplBase@HUContextMenuParam@DuiLib@@@@I@Z 004304e0 f i UIMenu.obj
 0001:0002f540       ?deallocate@?$allocator@PAV?$ReceiverImplBase@HUContextMenuParam@DuiLib@@@@@std@@QAEXPAPAV?$ReceiverImplBase@HUContextMenuParam@DuiLib@@@@I@Z 00430540 f i UIMenu.obj
 0001:0002f5a0       ?end@?$vector@PAV?$ObserverImplBase@HUContextMenuParam@DuiLib@@@@V?$allocator@PAV?$ObserverImplBase@HUContextMenuParam@DuiLib@@@@@std@@@std@@QAE?AV?$_Vector_iterator@V?$_Vector_val@U?$_Simple_types@PAV?$ObserverImplBase@HUContextMenuParam@DuiLib@@@@@std@@@std@@@2@XZ 004305a0 f i UIMenu.obj
 0001:0002f610       ?end@?$vector@PAV?$ReceiverImplBase@HUContextMenuParam@DuiLib@@@@V?$allocator@PAV?$ReceiverImplBase@HUContextMenuParam@DuiLib@@@@@std@@@std@@QAE?AV?$_Vector_iterator@V?$_Vector_val@U?$_Simple_types@PAV?$ReceiverImplBase@HUContextMenuParam@DuiLib@@@@@std@@@std@@@2@XZ 00430610 f i UIMenu.obj
 0001:0002f680       ?erase@?$vector@PAV?$ReceiverImplBase@HUContextMenuParam@DuiLib@@@@V?$allocator@PAV?$ReceiverImplBase@HUContextMenuParam@DuiLib@@@@@std@@@std@@QAE?AV?$_Vector_iterator@V?$_Vector_val@U?$_Simple_types@PAV?$ReceiverImplBase@HUContextMenuParam@DuiLib@@@@@std@@@std@@@2@V?$_Vector_const_iterator@V?$_Vector_val@U?$_Simple_types@PAV?$ReceiverImplBase@HUContextMenuParam@DuiLib@@@@@std@@@std@@@2@@Z 00430680 f i UIMenu.obj
 0001:0002f830       ?max_size@?$_Wrap_alloc@V?$allocator@PAV?$ObserverImplBase@HUContextMenuParam@DuiLib@@@@@std@@@std@@QBEIXZ 00430830 f i UIMenu.obj
 0001:0002f890       ?max_size@?$_Wrap_alloc@V?$allocator@PAV?$ReceiverImplBase@HUContextMenuParam@DuiLib@@@@@std@@@std@@QBEIXZ 00430890 f i UIMenu.obj
 0001:0002f8f0       ?max_size@?$allocator@PAV?$ObserverImplBase@HUContextMenuParam@DuiLib@@@@@std@@QBEIXZ 004308f0 f i UIMenu.obj
 0001:0002f930       ?max_size@?$allocator@PAV?$ReceiverImplBase@HUContextMenuParam@DuiLib@@@@@std@@QBEIXZ 00430930 f i UIMenu.obj
 0001:0002f970       ?max_size@?$allocator_traits@V?$allocator@PAV?$ObserverImplBase@HUContextMenuParam@DuiLib@@@@@std@@@std@@SAIABV?$allocator@PAV?$ObserverImplBase@HUContextMenuParam@DuiLib@@@@@2@@Z 00430970 f i UIMenu.obj
 0001:0002f9c0       ?max_size@?$allocator_traits@V?$allocator@PAV?$ReceiverImplBase@HUContextMenuParam@DuiLib@@@@@std@@@std@@SAIABV?$allocator@PAV?$ReceiverImplBase@HUContextMenuParam@DuiLib@@@@@2@@Z 004309c0 f i UIMenu.obj
 0001:0002fa10       ?max_size@?$vector@PAV?$ObserverImplBase@HUContextMenuParam@DuiLib@@@@V?$allocator@PAV?$ObserverImplBase@HUContextMenuParam@DuiLib@@@@@std@@@std@@QBEIXZ 00430a10 f i UIMenu.obj
 0001:0002fa70       ?max_size@?$vector@PAV?$ReceiverImplBase@HUContextMenuParam@DuiLib@@@@V?$allocator@PAV?$ReceiverImplBase@HUContextMenuParam@DuiLib@@@@@std@@@std@@QBEIXZ 00430a70 f i UIMenu.obj
 0001:0002fad0       ?next@?$Iterator@HUContextMenuParam@DuiLib@@@?$ObserverImpl@HUContextMenuParam@DuiLib@@@@QAEPAV?$ReceiverImplBase@HUContextMenuParam@DuiLib@@@@XZ 00430ad0 f i UIMenu.obj
 0001:0002fbb0       ?push_back@?$vector@PAV?$ObserverImplBase@HUContextMenuParam@DuiLib@@@@V?$allocator@PAV?$ObserverImplBase@HUContextMenuParam@DuiLib@@@@@std@@@std@@QAEXABQAV?$ObserverImplBase@HUContextMenuParam@DuiLib@@@@@Z 00430bb0 f i UIMenu.obj
 0001:0002fd40       ?push_back@?$vector@PAV?$ReceiverImplBase@HUContextMenuParam@DuiLib@@@@V?$allocator@PAV?$ReceiverImplBase@HUContextMenuParam@DuiLib@@@@@std@@@std@@QAEXABQAV?$ReceiverImplBase@HUContextMenuParam@DuiLib@@@@@Z 00430d40 f i UIMenu.obj
 0001:0002fed0       ?rbegin@?$vector@PAV?$ReceiverImplBase@HUContextMenuParam@DuiLib@@@@V?$allocator@PAV?$ReceiverImplBase@HUContextMenuParam@DuiLib@@@@@std@@@std@@QAE?AV?$reverse_iterator@V?$_Vector_iterator@V?$_Vector_val@U?$_Simple_types@PAV?$ReceiverImplBase@HUContextMenuParam@DuiLib@@@@@std@@@std@@@std@@@2@XZ 00430ed0 f i UIMenu.obj
 0001:0002ff60       ?rend@?$vector@PAV?$ReceiverImplBase@HUContextMenuParam@DuiLib@@@@V?$allocator@PAV?$ReceiverImplBase@HUContextMenuParam@DuiLib@@@@@std@@@std@@QAE?AV?$reverse_iterator@V?$_Vector_iterator@V?$_Vector_val@U?$_Simple_types@PAV?$ReceiverImplBase@HUContextMenuParam@DuiLib@@@@@std@@@std@@@std@@@2@XZ 00430f60 f i UIMenu.obj
 0001:0002fff0       ?size@?$vector@PAV?$ObserverImplBase@HUContextMenuParam@DuiLib@@@@V?$allocator@PAV?$ObserverImplBase@HUContextMenuParam@DuiLib@@@@@std@@@std@@QBEIXZ 00430ff0 f i UIMenu.obj
 0001:00030040       ?size@?$vector@PAV?$ReceiverImplBase@HUContextMenuParam@DuiLib@@@@V?$allocator@PAV?$ReceiverImplBase@HUContextMenuParam@DuiLib@@@@@std@@@std@@QBEIXZ 00431040 f i UIMenu.obj
 0001:00030090       ??$_Allocate@V?$basic_string@_WU?$char_traits@_W@std@@V?$allocator@_W@2@@std@@@std@@YAPAV?$basic_string@_WU?$char_traits@_W@std@@V?$allocator@_W@2@@0@IPAV10@@Z 00431090 f i Utils.obj
 0001:00030120       ??$_Debug_pointer@V?$basic_string@_WU?$char_traits@_W@std@@V?$allocator@_W@2@@std@@@std@@YAXPAV?$basic_string@_WU?$char_traits@_W@std@@V?$allocator@_W@2@@0@PB_WI@Z 00431120 f i Utils.obj
 0001:00030190       ??$_Debug_range2@PAV?$basic_string@_WU?$char_traits@_W@std@@V?$allocator@_W@2@@std@@@std@@YAXPAV?$basic_string@_WU?$char_traits@_W@std@@V?$allocator@_W@2@@0@0PB_WIUrandom_access_iterator_tag@0@@Z 00431190 f i Utils.obj
 0001:00030240       ??$_Debug_range@PAV?$basic_string@_WU?$char_traits@_W@std@@V?$allocator@_W@2@@std@@@std@@YAXPAV?$basic_string@_WU?$char_traits@_W@std@@V?$allocator@_W@2@@0@0PB_WI@Z 00431240 f i Utils.obj
 0001:000302c0       ??$_Destroy_range@U?$_Wrap_alloc@V?$allocator@V?$basic_string@_WU?$char_traits@_W@std@@V?$allocator@_W@2@@std@@@std@@@std@@@std@@YAXPAV?$basic_string@_WU?$char_traits@_W@std@@V?$allocator@_W@2@@0@0AAU?$_Wrap_alloc@V?$allocator@V?$basic_string@_WU?$char_traits@_W@std@@V?$allocator@_W@2@@std@@@std@@@0@@Z 004312c0 f i Utils.obj
 0001:00030340       ??$_Destroy_range@U?$_Wrap_alloc@V?$allocator@V?$basic_string@_WU?$char_traits@_W@std@@V?$allocator@_W@2@@std@@@std@@@std@@@std@@YAXPAV?$basic_string@_WU?$char_traits@_W@std@@V?$allocator@_W@2@@0@0AAU?$_Wrap_alloc@V?$allocator@V?$basic_string@_WU?$char_traits@_W@std@@V?$allocator@_W@2@@std@@@std@@@0@U_Nonscalar_ptr_iterator_tag@0@@Z 00431340 f i Utils.obj
 0001:000303b0       ??$_Iter_cat@PAV?$basic_string@_WU?$char_traits@_W@std@@V?$allocator@_W@2@@std@@@std@@YA?AUrandom_access_iterator_tag@0@ABQAV?$basic_string@_WU?$char_traits@_W@std@@V?$allocator@_W@2@@0@@Z 004313b0 f i Utils.obj
 0001:00030430       ??$_Ptr_cat@V?$basic_string@_WU?$char_traits@_W@std@@V?$allocator@_W@2@@std@@V12@@std@@YA?AU_Nonscalar_ptr_iterator_tag@0@PAV?$basic_string@_WU?$char_traits@_W@std@@V?$allocator@_W@2@@0@0@Z 00431430 f i Utils.obj
 0001:000304a0       ??$_Rechecked@PAV?$basic_string@_WU?$char_traits@_W@std@@V?$allocator@_W@2@@std@@PAV12@@std@@YAAAPAV?$basic_string@_WU?$char_traits@_W@std@@V?$allocator@_W@2@@0@AAPAV10@PAV10@@Z 004314a0 f i Utils.obj
 0001:000304e0       ??$_Umove@PAV?$basic_string@_WU?$char_traits@_W@std@@V?$allocator@_W@2@@std@@@?$vector@V?$basic_string@_WU?$char_traits@_W@std@@V?$allocator@_W@2@@std@@V?$allocator@V?$basic_string@_WU?$char_traits@_W@std@@V?$allocator@_W@2@@std@@@2@@std@@IAEPAV?$basic_string@_WU?$char_traits@_W@std@@V?$allocator@_W@2@@1@PAV21@00@Z 004314e0 f i Utils.obj
 0001:00030590       ??$_Unchecked@PAV?$basic_string@_WU?$char_traits@_W@std@@V?$allocator@_W@2@@std@@@std@@YAPAV?$basic_string@_WU?$char_traits@_W@std@@V?$allocator@_W@2@@0@PAV10@@Z 00431590 f i Utils.obj
 0001:000305d0       ??$_Uninit_move@PAV?$basic_string@_WU?$char_traits@_W@std@@V?$allocator@_W@2@@std@@PAV12@U?$_Wrap_alloc@V?$allocator@V?$basic_string@_WU?$char_traits@_W@std@@V?$allocator@_W@2@@std@@@std@@@2@@std@@YAPAV?$basic_string@_WU?$char_traits@_W@std@@V?$allocator@_W@2@@0@PAV10@00AAU?$_Wrap_alloc@V?$allocator@V?$basic_string@_WU?$char_traits@_W@std@@V?$allocator@_W@2@@std@@@std@@@0@@Z 004315d0 f i Utils.obj
 0001:00030670       ??$_Uninit_move@PAV?$basic_string@_WU?$char_traits@_W@std@@V?$allocator@_W@2@@std@@PAV12@V?$allocator@V?$basic_string@_WU?$char_traits@_W@std@@V?$allocator@_W@2@@std@@@2@V12@@std@@YAPAV?$basic_string@_WU?$char_traits@_W@std@@V?$allocator@_W@2@@0@PAV10@00AAU?$_Wrap_alloc@V?$allocator@V?$basic_string@_WU?$char_traits@_W@std@@V?$allocator@_W@2@@std@@@std@@@0@0U_Nonscalar_ptr_iterator_tag@0@@Z 00431670 f i Utils.obj
 0001:000307d0       ??$_Uninitialized_move@PAV?$basic_string@_WU?$char_traits@_W@std@@V?$allocator@_W@2@@std@@PAV12@U?$_Wrap_alloc@V?$allocator@V?$basic_string@_WU?$char_traits@_W@std@@V?$allocator@_W@2@@std@@@std@@@2@@std@@YAPAV?$basic_string@_WU?$char_traits@_W@std@@V?$allocator@_W@2@@0@PAV10@00AAU?$_Wrap_alloc@V?$allocator@V?$basic_string@_WU?$char_traits@_W@std@@V?$allocator@_W@2@@std@@@std@@@0@@Z 004317d0 f i Utils.obj
 0001:00030870       ??$_Val_type@PAV?$basic_string@_WU?$char_traits@_W@std@@V?$allocator@_W@2@@std@@@std@@YAPAV?$basic_string@_WU?$char_traits@_W@std@@V?$allocator@_W@2@@0@PAV10@@Z 00431870 f i Utils.obj
 0001:000308a0       ??$addressof@V?$basic_string@_WU?$char_traits@_W@std@@V?$allocator@_W@2@@std@@@std@@YAPAV?$basic_string@_WU?$char_traits@_W@std@@V?$allocator@_W@2@@0@AAV10@@Z 004318a0 f i Utils.obj
 0001:000308e0       ??$construct@V?$basic_string@_WU?$char_traits@_W@std@@V?$allocator@_W@2@@std@@V12@@?$_Wrap_alloc@V?$allocator@V?$basic_string@_WU?$char_traits@_W@std@@V?$allocator@_W@2@@std@@@std@@@std@@QAEXPAV?$basic_string@_WU?$char_traits@_W@std@@V?$allocator@_W@2@@1@$$QAV21@@Z 004318e0 f i Utils.obj
 0001:00030950       ??$construct@V?$basic_string@_WU?$char_traits@_W@std@@V?$allocator@_W@2@@std@@V12@@?$allocator@V?$basic_string@_WU?$char_traits@_W@std@@V?$allocator@_W@2@@std@@@std@@QAEXPAV?$basic_string@_WU?$char_traits@_W@std@@V?$allocator@_W@2@@1@$$QAV21@@Z 00431950 f i Utils.obj
 0001:00030a50       ??$construct@V?$basic_string@_WU?$char_traits@_W@std@@V?$allocator@_W@2@@std@@V12@@?$allocator_traits@V?$allocator@V?$basic_string@_WU?$char_traits@_W@std@@V?$allocator@_W@2@@std@@@std@@@std@@SAXAAV?$allocator@V?$basic_string@_WU?$char_traits@_W@std@@V?$allocator@_W@2@@std@@@1@PAV?$basic_string@_WU?$char_traits@_W@std@@V?$allocator@_W@2@@1@$$QAV31@@Z 00431a50 f i Utils.obj
 0001:00030ab0       ??$destroy@V?$basic_string@_WU?$char_traits@_W@std@@V?$allocator@_W@2@@std@@@?$_Wrap_alloc@V?$allocator@V?$basic_string@_WU?$char_traits@_W@std@@V?$allocator@_W@2@@std@@@std@@@std@@QAEXPAV?$basic_string@_WU?$char_traits@_W@std@@V?$allocator@_W@2@@1@@Z 00431ab0 f i Utils.obj
 0001:00030b10       ??$destroy@V?$basic_string@_WU?$char_traits@_W@std@@V?$allocator@_W@2@@std@@@?$allocator@V?$basic_string@_WU?$char_traits@_W@std@@V?$allocator@_W@2@@std@@@std@@QAEXPAV?$basic_string@_WU?$char_traits@_W@std@@V?$allocator@_W@2@@1@@Z 00431b10 f i Utils.obj
 0001:00030b70       ??$destroy@V?$basic_string@_WU?$char_traits@_W@std@@V?$allocator@_W@2@@std@@@?$allocator_traits@V?$allocator@V?$basic_string@_WU?$char_traits@_W@std@@V?$allocator@_W@2@@std@@@std@@@std@@SAXAAV?$allocator@V?$basic_string@_WU?$char_traits@_W@std@@V?$allocator@_W@2@@std@@@1@PAV?$basic_string@_WU?$char_traits@_W@std@@V?$allocator@_W@2@@1@@Z 00431b70 f i Utils.obj
 0001:00030bc0       ??0?$_Wrap_alloc@V?$allocator@V?$basic_string@_WU?$char_traits@_W@std@@V?$allocator@_W@2@@std@@@std@@@std@@QAE@XZ 00431bc0 f i Utils.obj
 0001:00030c20       ??0?$allocator@V?$basic_string@_WU?$char_traits@_W@std@@V?$allocator@_W@2@@std@@@std@@QAE@XZ 00431c20 f i Utils.obj
 0001:00030c60       ??9?$_String_const_iterator@V?$_String_val@U?$_Simple_types@_W@std@@@std@@@std@@QBE_NABV01@@Z 00431c60 f i Utils.obj
 0001:00030cf0       ??A?$vector@V?$basic_string@_WU?$char_traits@_W@std@@V?$allocator@_W@2@@std@@V?$allocator@V?$basic_string@_WU?$char_traits@_W@std@@V?$allocator@_W@2@@std@@@2@@std@@QAEAAV?$basic_string@_WU?$char_traits@_W@std@@V?$allocator@_W@2@@1@I@Z 00431cf0 f i Utils.obj
 0001:00030e00       ??_G?$basic_string@_WU?$char_traits@_W@std@@V?$allocator@_W@2@@std@@QAEPAXI@Z 00431e00 f i Utils.obj
 0001:00030e70       ?AnsiToUnicode@@YAPA_WPBD@Z 00431e70 f   Utils.obj
 0001:00030fc0       ?DecodeHtmlSpecialChars@@YAXAAV?$basic_string@_WU?$char_traits@_W@std@@V?$allocator@_W@2@@std@@@Z 00431fc0 f   Utils.obj
 0001:000310b0       ?DllRegisterServer@@YAHPB_W@Z 004320b0 f   Utils.obj
 0001:00031100       ?DllRegisterServer@@YAHPB_WH@Z 00432100 f   Utils.obj
 0001:000311f0       ?DllUnregisterServer@@YAHPB_W@Z 004321f0 f   Utils.obj
 0001:00031240       ?EncodeHtmlSpecialChars@@YAXAAV?$basic_string@_WU?$char_traits@_W@std@@V?$allocator@_W@2@@std@@@Z 00432240 f   Utils.obj
 0001:00031330       ?EnumSysFont@@YAHPAV?$vector@V?$basic_string@_WU?$char_traits@_W@std@@V?$allocator@_W@2@@std@@V?$allocator@V?$basic_string@_WU?$char_traits@_W@std@@V?$allocator@_W@2@@std@@@2@@std@@@Z 00432330 f   Utils.obj
 0001:000313e0       ?EnumSysFontProc@@YGHPBUtagLOGFONTW@@PBUtagTEXTMETRICW@@KJ@Z 004323e0 f   Utils.obj
 0001:00031540       ?FlashWindowEx@@YAHPAUHWND__@@H@Z 00432540 f   Utils.obj
 0001:00031620       ?FormatTime@@YAPB_W_JPB_W@Z 00432620 f   Utils.obj
 0001:000316c0       ?GetBetweenInt@@YAHPB_W00H@Z 004326c0 f   Utils.obj
 0001:00031860       ?GetBetweenInt@@YAHPB_W_W1H@Z 00432860 f   Utils.obj
 0001:00031a00       ?GetBetweenString@@YA?AV?$basic_string@_WU?$char_traits@_W@std@@V?$allocator@_W@2@@std@@PB_W00@Z 00432a00 f   Utils.obj
 0001:00031dc0       ?GetBetweenString@@YA?AV?$basic_string@_WU?$char_traits@_W@std@@V?$allocator@_W@2@@std@@PB_W_W1@Z 00432dc0 f   Utils.obj
 0001:00032150       ?GetEncoderClsidByExtension@@YA?AU_GUID@@PB_W@Z 00433150 f   Utils.obj
 0001:000325f0       ?GetEncoderClsidByFileType@@YA?AU_GUID@@ABU1@@Z 004335f0 f   Utils.obj
 0001:00032860       ?GetEncoderClsidByMimeType@@YA?AU_GUID@@PB_W@Z 00433860 f   Utils.obj
 0001:00032b10       ?GetFileTypeGuidByExtension@@YA?AU_GUID@@PB_W@Z 00433b10 f   Utils.obj
 0001:00032fb0       ?GetTrayWndRect@@YAHPAUtagRECT@@@Z 00433fb0 f   Utils.obj
 0001:00033050       ?GlobalAllocByString@@YAPAXPBDJ@Z 00434050 f   Utils.obj
 0001:00033160       ?GlobalAllocByString@@YAPAXPB_WJ@Z 00434160 f   Utils.obj
 0001:000331f0       ?IsDigit@@YAHPB_W@Z        004341f0 f   Utils.obj
 0001:00033290       ?Replace@@YAXAAV?$basic_string@_WU?$char_traits@_W@std@@V?$allocator@_W@2@@std@@PB_W1@Z 00434290 f   Utils.obj
 0001:00033370       ?ToLower@@YAXAAV?$basic_string@_WU?$char_traits@_W@std@@V?$allocator@_W@2@@std@@@Z 00434370 f   Utils.obj
 0001:000334f0       ?ToLower@@YAXPA_W@Z        004344f0 f   Utils.obj
 0001:00033570       ?ToLower@@YA_W_W@Z         00434570 f i Utils.obj
 0001:000335e0       ?ToUpper@@YAXAAV?$basic_string@_WU?$char_traits@_W@std@@V?$allocator@_W@2@@std@@@Z 004345e0 f   Utils.obj
 0001:00033760       ?ToUpper@@YAXPA_W@Z        00434760 f   Utils.obj
 0001:000337e0       ?ToUpper@@YA_W_W@Z         004347e0 f i Utils.obj
 0001:00033850       ?UnicodeToAnsi@@YAPADPB_W@Z 00434850 f   Utils.obj
 0001:00033990       ?UnicodeToUtf8@@YAPADPB_W@Z 00434990 f   Utils.obj
 0001:00033ad0       ?Utf8ToUnicode@@YAPA_WPBD@Z 00434ad0 f   Utils.obj
 0001:00033c20       ?_Destroy@?$vector@V?$basic_string@_WU?$char_traits@_W@std@@V?$allocator@_W@2@@std@@V?$allocator@V?$basic_string@_WU?$char_traits@_W@std@@V?$allocator@_W@2@@std@@@2@@std@@IAEXPAV?$basic_string@_WU?$char_traits@_W@std@@V?$allocator@_W@2@@2@0@Z 00434c20 f i Utils.obj
 0001:00033cd0       ?_Getal@?$_Vector_alloc@$0A@U?$_Vec_base_types@V?$basic_string@_WU?$char_traits@_W@std@@V?$allocator@_W@2@@std@@V?$allocator@V?$basic_string@_WU?$char_traits@_W@std@@V?$allocator@_W@2@@std@@@2@@std@@@std@@QBE?AU?$_Wrap_alloc@V?$allocator@V?$basic_string@_WU?$char_traits@_W@std@@V?$allocator@_W@2@@std@@@std@@@2@XZ 00434cd0 f i Utils.obj
 0001:00033d30       ?_Grow_to@?$vector@V?$basic_string@_WU?$char_traits@_W@std@@V?$allocator@_W@2@@std@@V?$allocator@V?$basic_string@_WU?$char_traits@_W@std@@V?$allocator@_W@2@@std@@@2@@std@@IBEII@Z 00434d30 f i Utils.obj
 0001:00033de0       ?_Inside@?$vector@V?$basic_string@_WU?$char_traits@_W@std@@V?$allocator@_W@2@@std@@V?$allocator@V?$basic_string@_WU?$char_traits@_W@std@@V?$allocator@_W@2@@std@@@2@@std@@IBE_NPBV?$basic_string@_WU?$char_traits@_W@std@@V?$allocator@_W@2@@2@@Z 00434de0 f i Utils.obj
 0001:00033e60       ?_Orphan_range@?$vector@V?$basic_string@_WU?$char_traits@_W@std@@V?$allocator@_W@2@@std@@V?$allocator@V?$basic_string@_WU?$char_traits@_W@std@@V?$allocator@_W@2@@std@@@2@@std@@IBEXPAV?$basic_string@_WU?$char_traits@_W@std@@V?$allocator@_W@2@@2@0@Z 00434e60 f i Utils.obj
 0001:00033fe0       ?_Reallocate@?$vector@V?$basic_string@_WU?$char_traits@_W@std@@V?$allocator@_W@2@@std@@V?$allocator@V?$basic_string@_WU?$char_traits@_W@std@@V?$allocator@_W@2@@std@@@2@@std@@IAEXI@Z 00434fe0 f i Utils.obj
 0001:000341c0       ?_Reserve@?$vector@V?$basic_string@_WU?$char_traits@_W@std@@V?$allocator@_W@2@@std@@V?$allocator@V?$basic_string@_WU?$char_traits@_W@std@@V?$allocator@_W@2@@std@@@2@@std@@IAEXI@Z 004351c0 f i Utils.obj
 0001:00034270       ?_Unused_capacity@?$vector@V?$basic_string@_WU?$char_traits@_W@std@@V?$allocator@_W@2@@std@@V?$allocator@V?$basic_string@_WU?$char_traits@_W@std@@V?$allocator@_W@2@@std@@@2@@std@@QBEIXZ 00435270 f i Utils.obj
 0001:000342c0       ?_Xlen@?$vector@V?$basic_string@_WU?$char_traits@_W@std@@V?$allocator@_W@2@@std@@V?$allocator@V?$basic_string@_WU?$char_traits@_W@std@@V?$allocator@_W@2@@std@@@2@@std@@IBEXXZ 004352c0 f i Utils.obj
 0001:00034320       ?allocate@?$_Wrap_alloc@V?$allocator@V?$basic_string@_WU?$char_traits@_W@std@@V?$allocator@_W@2@@std@@@std@@@std@@QAEPAV?$basic_string@_WU?$char_traits@_W@std@@V?$allocator@_W@2@@2@I@Z 00435320 f i Utils.obj
 0001:00034380       ?allocate@?$allocator@V?$basic_string@_WU?$char_traits@_W@std@@V?$allocator@_W@2@@std@@@std@@QAEPAV?$basic_string@_WU?$char_traits@_W@std@@V?$allocator@_W@2@@2@I@Z 00435380 f i Utils.obj
 0001:000343e0       ?capacity@?$vector@V?$basic_string@_WU?$char_traits@_W@std@@V?$allocator@_W@2@@std@@V?$allocator@V?$basic_string@_WU?$char_traits@_W@std@@V?$allocator@_W@2@@std@@@2@@std@@QBEIXZ 004353e0 f i Utils.obj
 0001:00034430       ?deallocate@?$_Wrap_alloc@V?$allocator@V?$basic_string@_WU?$char_traits@_W@std@@V?$allocator@_W@2@@std@@@std@@@std@@QAEXPAV?$basic_string@_WU?$char_traits@_W@std@@V?$allocator@_W@2@@2@I@Z 00435430 f i Utils.obj
 0001:00034490       ?deallocate@?$allocator@V?$basic_string@_WU?$char_traits@_W@std@@V?$allocator@_W@2@@std@@@std@@QAEXPAV?$basic_string@_WU?$char_traits@_W@std@@V?$allocator@_W@2@@2@I@Z 00435490 f i Utils.obj
 0001:000344f0       ?find@?$basic_string@_WU?$char_traits@_W@std@@V?$allocator@_W@2@@std@@QBEIPB_WI@Z 004354f0 f i Utils.obj
 0001:00034580       ?max_size@?$_Wrap_alloc@V?$allocator@V?$basic_string@_WU?$char_traits@_W@std@@V?$allocator@_W@2@@std@@@std@@@std@@QBEIXZ 00435580 f i Utils.obj
 0001:000345e0       ?max_size@?$allocator@V?$basic_string@_WU?$char_traits@_W@std@@V?$allocator@_W@2@@std@@@std@@QBEIXZ 004355e0 f i Utils.obj
 0001:00034620       ?max_size@?$allocator_traits@V?$allocator@V?$basic_string@_WU?$char_traits@_W@std@@V?$allocator@_W@2@@std@@@std@@@std@@SAIABV?$allocator@V?$basic_string@_WU?$char_traits@_W@std@@V?$allocator@_W@2@@std@@@2@@Z 00435620 f i Utils.obj
 0001:00034670       ?max_size@?$vector@V?$basic_string@_WU?$char_traits@_W@std@@V?$allocator@_W@2@@std@@V?$allocator@V?$basic_string@_WU?$char_traits@_W@std@@V?$allocator@_W@2@@std@@@2@@std@@QBEIXZ 00435670 f i Utils.obj
 0001:000346d0       ?push_back@?$vector@V?$basic_string@_WU?$char_traits@_W@std@@V?$allocator@_W@2@@std@@V?$allocator@V?$basic_string@_WU?$char_traits@_W@std@@V?$allocator@_W@2@@std@@@2@@std@@QAEX$$QAV?$basic_string@_WU?$char_traits@_W@std@@V?$allocator@_W@2@@2@@Z 004356d0 f i Utils.obj
 0001:00034870       ?replace@?$basic_string@_WU?$char_traits@_W@std@@V?$allocator@_W@2@@std@@QAEAAV12@IIPB_W@Z 00435870 f i Utils.obj
 0001:00034900       ?size@?$vector@V?$basic_string@_WU?$char_traits@_W@std@@V?$allocator@_W@2@@std@@V?$allocator@V?$basic_string@_WU?$char_traits@_W@std@@V?$allocator@_W@2@@std@@@2@@std@@QBEIXZ 00435900 f i Utils.obj
 0001:000349b0       ??0IMessageFilterUI@DuiLib@@QAE@XZ 004359b0 f i win_impl_base.obj
 0001:00034a00       ??0INotifyUI@DuiLib@@QAE@XZ 00435a00 f i win_impl_base.obj
 0001:00034a50       ??0WindowImplBase@@QAE@XZ  00435a50 f   win_impl_base.obj
 0001:00034b30       ??1WindowImplBase@@UAE@XZ  00435b30 f   win_impl_base.obj
 0001:00034bc0       ??_EWindowImplBase@@UAEPAXI@Z 00435bc0 f i win_impl_base.obj
 0001:00034bc0       ??_GWindowImplBase@@UAEPAXI@Z 00435bc0 f i win_impl_base.obj
 0001:00034c30       ?Cleanup@WindowImplBase@@SAXXZ 00435c30 f   win_impl_base.obj
 0001:00034cb0       ?CreateControl@WindowImplBase@@UAEPAVCControlUI@DuiLib@@PB_W@Z 00435cb0 f   win_impl_base.obj
 0001:00034cf0       ?GetClassStyle@WindowImplBase@@UBEIXZ 00435cf0 f   win_impl_base.obj
 0001:00034d30       ?GetSkinFolder@WindowImplBase@@MAE?AVCStdString@DuiLib@@XZ 00435d30 f   win_impl_base.obj
 0001:00034e70       ?HandleCustomMessage@WindowImplBase@@UAEJIIJAAH@Z 00435e70 f   win_impl_base.obj
 0001:00034ec0       ?HandleMessage@WindowImplBase@@UAEJIIJ@Z 00435ec0 f   win_impl_base.obj
 0001:000356e0       ?Init@WindowImplBase@@UAEXXZ 004366e0 f   win_impl_base.obj
 0001:00035720       ?MessageHandler@WindowImplBase@@UAEJIIJAA_N@Z 00436720 f   win_impl_base.obj
 0001:000357d0       ?OnClose@WindowImplBase@@UAEJIIJAAH@Z 004367d0 f   win_impl_base.obj
 0001:00035820       ?OnCreate@WindowImplBase@@UAEJIIJAAH@Z 00436820 f   win_impl_base.obj
 0001:00035db0       ?OnDestroy@WindowImplBase@@UAEJIIJAAH@Z 00436db0 f   win_impl_base.obj
 0001:00035e00       ?OnFinalMessage@WindowImplBase@@UAEXPAUHWND__@@@Z 00436e00 f   win_impl_base.obj
 0001:00035f10       ?OnGetMinMaxInfo@WindowImplBase@@UAEJIIJAAH@Z 00436f10 f   win_impl_base.obj
 0001:000360c0       ?OnKeyDown@WindowImplBase@@UAEJIIJAAH@Z 004370c0 f   win_impl_base.obj
 0001:00036110       ?OnKillFocus@WindowImplBase@@UAEJIIJAAH@Z 00437110 f   win_impl_base.obj
 0001:00036160       ?OnLButtonDown@WindowImplBase@@UAEJIIJAAH@Z 00437160 f   win_impl_base.obj
 0001:000361b0       ?OnLButtonUp@WindowImplBase@@UAEJIIJAAH@Z 004371b0 f   win_impl_base.obj
 0001:00036200       ?OnMouseMove@WindowImplBase@@UAEJIIJAAH@Z 00437200 f   win_impl_base.obj
 0001:00036250       ?OnMouseWheel@WindowImplBase@@UAEJIIJAAH@Z 00437250 f   win_impl_base.obj
 0001:000362a0       ?OnNcActivate@WindowImplBase@@UAEJIIJAAH@Z 004372a0 f   win_impl_base.obj
 0001:00036350       ?OnNcCalcSize@WindowImplBase@@UAEJIIJAAH@Z 00437350 f   win_impl_base.obj
 0001:00036390       ?OnNcHitTest@WindowImplBase@@UAEJIIJAAH@Z 00437390 f   win_impl_base.obj
 0001:00036780       ?OnNcPaint@WindowImplBase@@UAEJIIJAAH@Z 00437780 f   win_impl_base.obj
 0001:000367c0       ?OnSetFocus@WindowImplBase@@UAEJIIJAAH@Z 004377c0 f   win_impl_base.obj
 0001:00036810       ?OnSize@WindowImplBase@@UAEJIIJAAH@Z 00437810 f   win_impl_base.obj
 0001:00036a40       ?OnSysCommand@WindowImplBase@@UAEJIIJAAH@Z 00437a40 f   win_impl_base.obj
 0001:00036b30       ?ResponseDefaultKeyEvent@WindowImplBase@@MAEJI@Z 00437b30 f   win_impl_base.obj
 0001:00036bc0       ??0CXmlDocument@@QAE@XZ    00437bc0 f   XmlDocument.obj
 0001:00036c10       ??0CXmlNode@@QAE@XZ        00437c10 f   XmlDocument.obj
 0001:00036c60       ??0CXmlNodeList@@QAE@XZ    00437c60 f   XmlDocument.obj
 0001:00036cb0       ??1CXmlDocument@@QAE@XZ    00437cb0 f   XmlDocument.obj
 0001:00036d00       ??1CXmlNode@@QAE@XZ        00437d00 f   XmlDocument.obj
 0001:00036d50       ??1CXmlNodeList@@QAE@XZ    00437d50 f   XmlDocument.obj
 0001:00036da0       ?Attach@CXmlNode@@QAEXPAUIXMLDOMNode@@@Z 00437da0 f   XmlDocument.obj
 0001:00036e00       ?Attach@CXmlNodeList@@QAEXPAUIXMLDOMNodeList@@@Z 00437e00 f   XmlDocument.obj
 0001:00036e60       ?Detach@CXmlNode@@QAEPAUIXMLDOMNode@@XZ 00437e60 f   XmlDocument.obj
 0001:00036eb0       ?Detach@CXmlNodeList@@QAEPAUIXMLDOMNodeList@@XZ 00437eb0 f   XmlDocument.obj
 0001:00036f00       ?GetAttribute@CXmlNode@@QAE?AV?$basic_string@_WU?$char_traits@_W@std@@V?$allocator@_W@2@@std@@PB_W@Z 00437f00 f   XmlDocument.obj
 0001:000371d0       ?GetAttributeInt@CXmlNode@@QAEHPB_W@Z 004381d0 f   XmlDocument.obj
 0001:000372c0       ?GetFirstChildNode@CXmlNode@@QAEHAAV1@@Z 004382c0 f   XmlDocument.obj
 0001:000373c0       ?GetFirstChildNode@CXmlNode@@QAEHPB_WAAV1@@Z 004383c0 f   XmlDocument.obj
 0001:000375e0       ?GetItem@CXmlNodeList@@QAEHHAAVCXmlNode@@@Z 004385e0 f   XmlDocument.obj
 0001:000376c0       ?GetLength@CXmlNodeList@@QAEHXZ 004386c0 f   XmlDocument.obj
 0001:000377a0       ?GetNextSiblingNode@CXmlNode@@QAEHAAV1@@Z 004387a0 f   XmlDocument.obj
 0001:000378a0       ?GetNextSiblingNode@CXmlNode@@QAEHPB_WAAV1@@Z 004388a0 f   XmlDocument.obj
 0001:00037ac0       ?GetNodeName@CXmlNode@@QAE?AV?$basic_string@_WU?$char_traits@_W@std@@V?$allocator@_W@2@@std@@XZ 00438ac0 f   XmlDocument.obj
 0001:00037cf0       ?GetText@CXmlNode@@QAE?AV?$basic_string@_WU?$char_traits@_W@std@@V?$allocator@_W@2@@std@@XZ 00438cf0 f   XmlDocument.obj
 0001:00037f10       ?GetTextInt@CXmlNode@@QAEHXZ 00438f10 f   XmlDocument.obj
 0001:00038000       ?Load@CXmlDocument@@QAEHPB_W@Z 00439000 f   XmlDocument.obj
 0001:000382d0       ?LoadXml@CXmlDocument@@QAEHPB_W@Z 004392d0 f   XmlDocument.obj
 0001:00038530       ?Release@CXmlDocument@@QAEXXZ 00439530 f   XmlDocument.obj
 0001:000385b0       ?Release@CXmlNode@@QAEXXZ  004395b0 f   XmlDocument.obj
 0001:00038630       ?Release@CXmlNodeList@@QAEXXZ 00439630 f   XmlDocument.obj
 0001:000386b0       ?SelectNodes@CXmlDocument@@QAEHPB_WAAVCXmlNodeList@@@Z 004396b0 f   XmlDocument.obj
 0001:00038800       ?SelectNodes@CXmlNode@@QAEHPB_WAAVCXmlNodeList@@@Z 00439800 f   XmlDocument.obj
 0001:00038950       ?SelectSingleNode@CXmlDocument@@QAEHPB_WAAVCXmlNode@@@Z 00439950 f   XmlDocument.obj
 0001:00038a90       ?SelectSingleNode@CXmlNode@@QAEHPB_WAAV1@@Z 00439a90 f   XmlDocument.obj
 0001:00038bcc       _CopyFileW@12              00439bcc f   kernel32:KERNEL32.dll
 0001:00038bd2       _GetCurrentDirectoryW@8    00439bd2 f   kernel32:KERNEL32.dll
 0001:00038bd8       _CreateDirectoryW@8        00439bd8 f   kernel32:KERNEL32.dll
 0001:00038bde       _GetFileAttributesW@4      00439bde f   kernel32:KERNEL32.dll
 0001:00038be4       _GetTempPathW@8            00439be4 f   kernel32:KERNEL32.dll
 0001:00038bea       _GetModuleFileNameW@12     00439bea f   kernel32:KERNEL32.dll
 0001:00038bf0       _FreeLibrary@4             00439bf0 f   kernel32:KERNEL32.dll
 0001:00038bf6       _LoadLibraryW@4            00439bf6 f   kernel32:KERNEL32.dll
 0001:00038bfc       _GetProcAddress@8          00439bfc f   kernel32:KERNEL32.dll
 0001:00038c02       _GlobalAlloc@8             00439c02 f   kernel32:KERNEL32.dll
 0001:00038c08       _GlobalLock@4              00439c08 f   kernel32:KERNEL32.dll
 0001:00038c0e       _GlobalUnlock@4            00439c0e f   kernel32:KERNEL32.dll
 0001:00038c14       _MultiByteToWideChar@24    00439c14 f   kernel32:KERNEL32.dll
 0001:00038c1a       _WideCharToMultiByte@32    00439c1a f   kernel32:KERNEL32.dll
 0001:00038c20       _OffsetRect@12             00439c20 f   user32:USER32.dll
 0001:00038c26       _SendMessageW@16           00439c26 f   user32:USER32.dll
 0001:00038c2c       _SetRect@20                00439c2c f   user32:USER32.dll
 0001:00038c32       _SetRectEmpty@4            00439c32 f   user32:USER32.dll
 0001:00038c38       _PtInRect@12               00439c38 f   user32:USER32.dll
 0001:00038c3e       _PostMessageW@16           00439c3e f   user32:USER32.dll
 0001:00038c44       _DestroyWindow@4           00439c44 f   user32:USER32.dll
 0001:00038c4a       _GetParent@4               00439c4a f   user32:USER32.dll
 0001:00038c50       _wsprintfW                 00439c50 f   user32:USER32.dll
 0001:00038c56       _PostQuitMessage@4         00439c56 f   user32:USER32.dll
 0001:00038c5c       _IsWindow@4                00439c5c f   user32:USER32.dll
 0001:00038c62       _ShowWindow@8              00439c62 f   user32:USER32.dll
 0001:00038c68       _SetWindowPos@28           00439c68 f   user32:USER32.dll
 0001:00038c6e       _IsZoomed@4                00439c6e f   user32:USER32.dll
 0001:00038c74       _GetClientRect@8           00439c74 f   user32:USER32.dll
 0001:00038c7a       _ClientToScreen@8          00439c7a f   user32:USER32.dll
 0001:00038c80       _IsCharAlphaW@4            00439c80 f   user32:USER32.dll
 0001:00038c86       _MessageBoxW@16            00439c86 f   user32:USER32.dll
 0001:00038c8c       _GetWindowTextW@12         00439c8c f   user32:USER32.dll
 0001:00038c92       _GetWindowTextLengthW@4    00439c92 f   user32:USER32.dll
 0001:00038c98       _MoveWindow@24             00439c98 f   user32:USER32.dll
 0001:00038c9e       _SetForegroundWindow@4     00439c9e f   user32:USER32.dll
 0001:00038ca4       _GetWindowRect@8           00439ca4 f   user32:USER32.dll
 0001:00038caa       _MapWindowPoints@16        00439caa f   user32:USER32.dll
 0001:00038cb0       _IntersectRect@12          00439cb0 f   user32:USER32.dll
 0001:00038cb6       _GetWindowLongW@8          00439cb6 f   user32:USER32.dll
 0001:00038cbc       _SetWindowLongW@12         00439cbc f   user32:USER32.dll
 0001:00038cc2       _MonitorFromWindow@8       00439cc2 f   user32:USER32.dll
 0001:00038cc8       _GetMonitorInfoW@8         00439cc8 f   user32:USER32.dll
 0001:00038cce       _FlashWindowEx@4           00439cce f   user32:USER32.dll
 0001:00038cd4       _GetDC@4                   00439cd4 f   user32:USER32.dll
 0001:00038cda       _ReleaseDC@8               00439cda f   user32:USER32.dll
 0001:00038ce0       _FindWindowW@8             00439ce0 f   user32:USER32.dll
 0001:00038ce6       _IsIconic@4                00439ce6 f   user32:USER32.dll
 0001:00038cec       _SetWindowRgn@12           00439cec f   user32:USER32.dll
 0001:00038cf2       _ScreenToClient@8          00439cf2 f   user32:USER32.dll
 0001:00038cf8       _CreatePen@12              00439cf8 f   gdi32:GDI32.dll
 0001:00038cfe       _CreateSolidBrush@4        00439cfe f   gdi32:GDI32.dll
 0001:00038d04       _DeleteObject@4            00439d04 f   gdi32:GDI32.dll
 0001:00038d0a       _GetStockObject@4          00439d0a f   gdi32:GDI32.dll
 0001:00038d10       _LineTo@12                 00439d10 f   gdi32:GDI32.dll
 0001:00038d16       _Rectangle@20              00439d16 f   gdi32:GDI32.dll
 0001:00038d1c       _SelectObject@8            00439d1c f   gdi32:GDI32.dll
 0001:00038d22       _MoveToEx@16               00439d22 f   gdi32:GDI32.dll
 0001:00038d28       _EnumFontFamiliesExW@20    00439d28 f   gdi32:GDI32.dll
 0001:00038d2e       _CreateRoundRectRgn@24     00439d2e f   gdi32:GDI32.dll
 0001:00038d34       _GetOpenFileNameW@4        00439d34 f   comdlg32:COMDLG32.dll
 0001:00038d3a       _GetSaveFileNameW@4        00439d3a f   comdlg32:COMDLG32.dll
 0001:00038d40       _ChooseColorW@4            00439d40 f   comdlg32:COMDLG32.dll
 0001:00038d46       _ShellExecuteW@24          00439d46 f   shell32:SHELL32.dll
 0001:00038d4c       _RegisterDragDrop@8        00439d4c f   ole32:ole32.dll
 0001:00038d52       _RevokeDragDrop@4          00439d52 f   ole32:ole32.dll
 0001:00038d58       _CoCreateInstance@20       00439d58 f   ole32:ole32.dll
 0001:00038d5e       _OleInitialize@4           00439d5e f   ole32:ole32.dll
 0001:00038d64       _OleUninitialize@0         00439d64 f   ole32:ole32.dll
 0001:00038d6a       _OleSetContainedObject@8   00439d6a f   ole32:ole32.dll
 0001:00038d70       _SysAllocString@4          00439d70 f   oleaut32:OLEAUT32.dll
 0001:00038d76       _SysFreeString@4           00439d76 f   oleaut32:OLEAUT32.dll
 0001:00038d7c       _VariantInit@4             00439d7c f   oleaut32:OLEAUT32.dll
 0001:00038d82       _VariantClear@4            00439d82 f   oleaut32:OLEAUT32.dll
 0001:00038d88       ??0CStdString@DuiLib@@QAE@XZ 00439d88 f   DuiLib_ud:DuiLib_ud.dll
 0001:00038d8e       ??1CStdString@DuiLib@@QAE@XZ 00439d8e f   DuiLib_ud:DuiLib_ud.dll
 0001:00038d94       ?Empty@CStdString@DuiLib@@QAEXXZ 00439d94 f   DuiLib_ud:DuiLib_ud.dll
 0001:00038d9a       ?IsEmpty@CStdString@DuiLib@@QBE_NXZ 00439d9a f   DuiLib_ud:DuiLib_ud.dll
 0001:00038da0       ??BCStdString@DuiLib@@QBEPB_WXZ 00439da0 f   DuiLib_ud:DuiLib_ud.dll
 0001:00038da6       ??4CStdString@DuiLib@@QAEABV01@PB_W@Z 00439da6 f   DuiLib_ud:DuiLib_ud.dll
 0001:00038dac       ?DrawImage@CControlUI@DuiLib@@QAE_NPAUHDC__@@PB_W1@Z 00439dac f   DuiLib_ud:DuiLib_ud.dll
 0001:00038db2       ?Invalidate@CControlUI@DuiLib@@QAEXXZ 00439db2 f   DuiLib_ud:DuiLib_ud.dll
 0001:00038db8       ??0CButtonUI@DuiLib@@QAE@XZ 00439db8 f   DuiLib_ud:DuiLib_ud.dll
 0001:00038dbe       ?GetInterface@CButtonUI@DuiLib@@UAEPAXPB_W@Z 00439dbe f   DuiLib_ud:DuiLib_ud.dll
 0001:00038dc4       ?SetAttribute@CButtonUI@DuiLib@@UAEXPB_W0@Z 00439dc4 f   DuiLib_ud:DuiLib_ud.dll
 0001:00038dca       ?PaintStatusImage@CButtonUI@DuiLib@@UAEXPAUHDC__@@@Z 00439dca f   DuiLib_ud:DuiLib_ud.dll
 0001:00038dd0       ??1CButtonUI@DuiLib@@UAE@XZ 00439dd0 f   DuiLib_ud:DuiLib_ud.dll
 0001:00038dd6       ?Activate@CButtonUI@DuiLib@@UAE_NXZ 00439dd6 f   DuiLib_ud:DuiLib_ud.dll
 0001:00038ddc       ?DoEvent@CButtonUI@DuiLib@@UAEXAAUtagTEventUI@2@@Z 00439ddc f   DuiLib_ud:DuiLib_ud.dll
 0001:00038de2       ?DoInit@CControlUI@DuiLib@@UAEXXZ 00439de2 f   DuiLib_ud:DuiLib_ud.dll
 0001:00038de8       ?DoPaint@CControlUI@DuiLib@@UAEXPAUHDC__@@ABUtagRECT@@@Z 00439de8 f   DuiLib_ud:DuiLib_ud.dll
 0001:00038dee       ?DoPostPaint@CControlUI@DuiLib@@UAEXPAUHDC__@@ABUtagRECT@@@Z 00439dee f   DuiLib_ud:DuiLib_ud.dll
 0001:00038df4       ?EstimateSize@CButtonUI@DuiLib@@UAE?AUtagSIZE@@U3@@Z 00439df4 f   DuiLib_ud:DuiLib_ud.dll
 0001:00038dfa       ?Event@CControlUI@DuiLib@@UAEXAAUtagTEventUI@2@@Z 00439dfa f   DuiLib_ud:DuiLib_ud.dll
 0001:00038e00       ?FindControl@CControlUI@DuiLib@@UAEPAV12@P6GPAV12@PAV12@PAX@Z1I@Z 00439e00 f   DuiLib_ud:DuiLib_ud.dll
 0001:00038e06       ?GetControlFlags@CButtonUI@DuiLib@@UBEIXZ 00439e06 f   DuiLib_ud:DuiLib_ud.dll
 0001:00038e0c       ?GetFixedHeight@CControlUI@DuiLib@@UBEHXZ 00439e0c f   DuiLib_ud:DuiLib_ud.dll
 0001:00038e12       ?GetFixedWidth@CControlUI@DuiLib@@UBEHXZ 00439e12 f   DuiLib_ud:DuiLib_ud.dll
 0001:00038e18       ?GetFixedXY@CControlUI@DuiLib@@UBE?AUtagSIZE@@XZ 00439e18 f   DuiLib_ud:DuiLib_ud.dll
 0001:00038e1e       ?GetHeight@CControlUI@DuiLib@@UBEHXZ 00439e1e f   DuiLib_ud:DuiLib_ud.dll
 0001:00038e24       ?GetManager@CControlUI@DuiLib@@UBEPAVCPaintManagerUI@2@XZ 00439e24 f   DuiLib_ud:DuiLib_ud.dll
 0001:00038e2a       ?GetMaxHeight@CControlUI@DuiLib@@UBEHXZ 00439e2a f   DuiLib_ud:DuiLib_ud.dll
 0001:00038e30       ?GetMaxWidth@CControlUI@DuiLib@@UBEHXZ 00439e30 f   DuiLib_ud:DuiLib_ud.dll
 0001:00038e36       ?GetMinHeight@CControlUI@DuiLib@@UBEHXZ 00439e36 f   DuiLib_ud:DuiLib_ud.dll
 0001:00038e3c       ?GetMinWidth@CControlUI@DuiLib@@UBEHXZ 00439e3c f   DuiLib_ud:DuiLib_ud.dll
 0001:00038e42       ?GetName@CControlUI@DuiLib@@UBE?AVCStdString@2@XZ 00439e42 f   DuiLib_ud:DuiLib_ud.dll
 0001:00038e48       ?GetPadding@CControlUI@DuiLib@@UBE?AUtagRECT@@XZ 00439e48 f   DuiLib_ud:DuiLib_ud.dll
 0001:00038e4e       ?GetParent@CControlUI@DuiLib@@UBEPAV12@XZ 00439e4e f   DuiLib_ud:DuiLib_ud.dll
 0001:00038e54       ?GetPos@CControlUI@DuiLib@@UBEABUtagRECT@@XZ 00439e54 f   DuiLib_ud:DuiLib_ud.dll
 0001:00038e5a       ?GetRelativePos@CControlUI@DuiLib@@UBE?AUtagTRelativePosUI@2@XZ 00439e5a f   DuiLib_ud:DuiLib_ud.dll
 0001:00038e60       ?GetShortcut@CControlUI@DuiLib@@UBE_WXZ 00439e60 f   DuiLib_ud:DuiLib_ud.dll
 0001:00038e66       ?GetTag@CControlUI@DuiLib@@UBEIXZ 00439e66 f   DuiLib_ud:DuiLib_ud.dll
 0001:00038e6c       ?GetText@CControlUI@DuiLib@@UBE?AVCStdString@2@XZ 00439e6c f   DuiLib_ud:DuiLib_ud.dll
 0001:00038e72       ?GetToolTip@CControlUI@DuiLib@@UBE?AVCStdString@2@XZ 00439e72 f   DuiLib_ud:DuiLib_ud.dll
 0001:00038e78       ?GetUserData@CControlUI@DuiLib@@UAEABVCStdString@2@XZ 00439e78 f   DuiLib_ud:DuiLib_ud.dll
 0001:00038e7e       ?GetWidth@CControlUI@DuiLib@@UBEHXZ 00439e7e f   DuiLib_ud:DuiLib_ud.dll
 0001:00038e84       ?GetX@CControlUI@DuiLib@@UBEHXZ 00439e84 f   DuiLib_ud:DuiLib_ud.dll
 0001:00038e8a       ?GetY@CControlUI@DuiLib@@UBEHXZ 00439e8a f   DuiLib_ud:DuiLib_ud.dll
 0001:00038e90       ?Init@CControlUI@DuiLib@@UAEXXZ 00439e90 f   DuiLib_ud:DuiLib_ud.dll
 0001:00038e96       ?IsContextMenuUsed@CControlUI@DuiLib@@UBE_NXZ 00439e96 f   DuiLib_ud:DuiLib_ud.dll
 0001:00038e9c       ?IsEnabled@CControlUI@DuiLib@@UBE_NXZ 00439e9c f   DuiLib_ud:DuiLib_ud.dll
 0001:00038ea2       ?IsFloat@CControlUI@DuiLib@@UBE_NXZ 00439ea2 f   DuiLib_ud:DuiLib_ud.dll
 0001:00038ea8       ?IsFocused@CControlUI@DuiLib@@UBE_NXZ 00439ea8 f   DuiLib_ud:DuiLib_ud.dll
 0001:00038eae       ?IsKeyboardEnabled@CControlUI@DuiLib@@UBE_NXZ 00439eae f   DuiLib_ud:DuiLib_ud.dll
 0001:00038eb4       ?IsMouseEnabled@CControlUI@DuiLib@@UBE_NXZ 00439eb4 f   DuiLib_ud:DuiLib_ud.dll
 0001:00038eba       ?IsRelativePos@CControlUI@DuiLib@@UBE_NXZ 00439eba f   DuiLib_ud:DuiLib_ud.dll
 0001:00038ec0       ?IsVisible@CControlUI@DuiLib@@UBE_NXZ 00439ec0 f   DuiLib_ud:DuiLib_ud.dll
 0001:00038ec6       ?PaintBkColor@CControlUI@DuiLib@@UAEXPAUHDC__@@@Z 00439ec6 f   DuiLib_ud:DuiLib_ud.dll
 0001:00038ecc       ?PaintBkImage@CControlUI@DuiLib@@UAEXPAUHDC__@@@Z 00439ecc f   DuiLib_ud:DuiLib_ud.dll
 0001:00038ed2       ?PaintBorder@CControlUI@DuiLib@@UAEXPAUHDC__@@@Z 00439ed2 f   DuiLib_ud:DuiLib_ud.dll
 0001:00038ed8       ?PaintText@CButtonUI@DuiLib@@UAEXPAUHDC__@@@Z 00439ed8 f   DuiLib_ud:DuiLib_ud.dll
 0001:00038ede       ?SetContextMenuUsed@CControlUI@DuiLib@@UAEX_N@Z 00439ede f   DuiLib_ud:DuiLib_ud.dll
 0001:00038ee4       ?SetEnabled@CButtonUI@DuiLib@@UAEX_N@Z 00439ee4 f   DuiLib_ud:DuiLib_ud.dll
 0001:00038eea       ?SetFixedHeight@CControlUI@DuiLib@@UAEXH@Z 00439eea f   DuiLib_ud:DuiLib_ud.dll
 0001:00038ef0       ?SetFixedWidth@CControlUI@DuiLib@@UAEXH@Z 00439ef0 f   DuiLib_ud:DuiLib_ud.dll
 0001:00038ef6       ?SetFixedXY@CControlUI@DuiLib@@UAEXUtagSIZE@@@Z 00439ef6 f   DuiLib_ud:DuiLib_ud.dll
 0001:00038efc       ?SetFloat@CControlUI@DuiLib@@UAEX_N@Z 00439efc f   DuiLib_ud:DuiLib_ud.dll
 0001:00038f02       ?SetFocus@CControlUI@DuiLib@@UAEXXZ 00439f02 f   DuiLib_ud:DuiLib_ud.dll
 0001:00038f08       ?SetInternVisible@CControlUI@DuiLib@@UAEX_N@Z 00439f08 f   DuiLib_ud:DuiLib_ud.dll
 0001:00038f0e       ?SetKeyboardEnabled@CControlUI@DuiLib@@UAEX_N@Z 00439f0e f   DuiLib_ud:DuiLib_ud.dll
 0001:00038f14       ?SetManager@CControlUI@DuiLib@@UAEXPAVCPaintManagerUI@2@PAV12@_N@Z 00439f14 f   DuiLib_ud:DuiLib_ud.dll
 0001:00038f1a       ?SetMaxHeight@CControlUI@DuiLib@@UAEXH@Z 00439f1a f   DuiLib_ud:DuiLib_ud.dll
 0001:00038f20       ?SetMaxWidth@CControlUI@DuiLib@@UAEXH@Z 00439f20 f   DuiLib_ud:DuiLib_ud.dll
 0001:00038f26       ?SetMinHeight@CControlUI@DuiLib@@UAEXH@Z 00439f26 f   DuiLib_ud:DuiLib_ud.dll
 0001:00038f2c       ?SetMinWidth@CControlUI@DuiLib@@UAEXH@Z 00439f2c f   DuiLib_ud:DuiLib_ud.dll
 0001:00038f32       ?SetMouseEnabled@CControlUI@DuiLib@@UAEX_N@Z 00439f32 f   DuiLib_ud:DuiLib_ud.dll
 0001:00038f38       ?SetName@CControlUI@DuiLib@@UAEXPB_W@Z 00439f38 f   DuiLib_ud:DuiLib_ud.dll
 0001:00038f3e       ?SetPadding@CControlUI@DuiLib@@UAEXUtagRECT@@@Z 00439f3e f   DuiLib_ud:DuiLib_ud.dll
 0001:00038f44       ?SetPos@CControlUI@DuiLib@@UAEXUtagRECT@@@Z 00439f44 f   DuiLib_ud:DuiLib_ud.dll
 0001:00038f4a       ?SetRelativeParentSize@CControlUI@DuiLib@@UAEXUtagSIZE@@@Z 00439f4a f   DuiLib_ud:DuiLib_ud.dll
 0001:00038f50       ?SetRelativePos@CControlUI@DuiLib@@UAEXUtagSIZE@@0@Z 00439f50 f   DuiLib_ud:DuiLib_ud.dll
 0001:00038f56       ?SetShortcut@CControlUI@DuiLib@@UAEX_W@Z 00439f56 f   DuiLib_ud:DuiLib_ud.dll
 0001:00038f5c       ?SetTag@CControlUI@DuiLib@@UAEXI@Z 00439f5c f   DuiLib_ud:DuiLib_ud.dll
 0001:00038f62       ?SetText@CControlUI@DuiLib@@UAEXPB_W@Z 00439f62 f   DuiLib_ud:DuiLib_ud.dll
 0001:00038f68       ?SetToolTip@CControlUI@DuiLib@@UAEXPB_W@Z 00439f68 f   DuiLib_ud:DuiLib_ud.dll
 0001:00038f6e       ?SetUserData@CControlUI@DuiLib@@UAEXPB_W@Z 00439f6e f   DuiLib_ud:DuiLib_ud.dll
 0001:00038f74       ?SetVisible@CControlUI@DuiLib@@UAEX_N@Z 00439f74 f   DuiLib_ud:DuiLib_ud.dll
 0001:00038f7a       ?GetTooltipWindow@CPaintManagerUI@DuiLib@@QBEPAUHWND__@@XZ 00439f7a f   DuiLib_ud:DuiLib_ud.dll
 0001:00038f80       ?SetTimer@CPaintManagerUI@DuiLib@@QAE_NPAVCControlUI@2@II@Z 00439f80 f   DuiLib_ud:DuiLib_ud.dll
 0001:00038f86       ?KillTimer@CPaintManagerUI@DuiLib@@QAE_NPAVCControlUI@2@I@Z 00439f86 f   DuiLib_ud:DuiLib_ud.dll
 0001:00038f8c       ?SendNotify@CPaintManagerUI@DuiLib@@QAEXPAVCControlUI@2@PB_WIJ_N@Z 00439f8c f   DuiLib_ud:DuiLib_ud.dll
 0001:00038f92       ??0CControlUI@DuiLib@@QAE@XZ 00439f92 f   DuiLib_ud:DuiLib_ud.dll
 0001:00038f98       ??1CControlUI@DuiLib@@UAE@XZ 00439f98 f   DuiLib_ud:DuiLib_ud.dll
 0001:00038f9e       ?GetInterface@CControlUI@DuiLib@@UAEPAXPB_W@Z 00439f9e f   DuiLib_ud:DuiLib_ud.dll
 0001:00038fa4       ?DoEvent@CControlUI@DuiLib@@UAEXAAUtagTEventUI@2@@Z 00439fa4 f   DuiLib_ud:DuiLib_ud.dll
 0001:00038faa       ?SetAttribute@CControlUI@DuiLib@@UAEXPB_W0@Z 00439faa f   DuiLib_ud:DuiLib_ud.dll
 0001:00038fb0       ?Activate@CControlUI@DuiLib@@UAE_NXZ 00439fb0 f   DuiLib_ud:DuiLib_ud.dll
 0001:00038fb6       ?EstimateSize@CControlUI@DuiLib@@UAE?AUtagSIZE@@U3@@Z 00439fb6 f   DuiLib_ud:DuiLib_ud.dll
 0001:00038fbc       ?GetControlFlags@CControlUI@DuiLib@@UBEIXZ 00439fbc f   DuiLib_ud:DuiLib_ud.dll
 0001:00038fc2       ?PaintText@CControlUI@DuiLib@@UAEXPAUHDC__@@@Z 00439fc2 f   DuiLib_ud:DuiLib_ud.dll
 0001:00038fc8       ?SetEnabled@CControlUI@DuiLib@@UAEX_N@Z 00439fc8 f   DuiLib_ud:DuiLib_ud.dll
 0001:00038fce       ??0CStdString@DuiLib@@QAE@PB_WH@Z 00439fce f   DuiLib_ud:DuiLib_ud.dll
 0001:00038fd4       ??HCStdString@DuiLib@@QBE?AV01@PB_W@Z 00439fd4 f   DuiLib_ud:DuiLib_ud.dll
 0001:00038fda       ??8CStdString@DuiLib@@QBE_NPB_W@Z 00439fda f   DuiLib_ud:DuiLib_ud.dll
 0001:00038fe0       ?GetInstancePath@CPaintManagerUI@DuiLib@@SA?AVCStdString@2@XZ 00439fe0 f   DuiLib_ud:DuiLib_ud.dll
 0001:00038fe6       ?FindControl@CPaintManagerUI@DuiLib@@QBEPAVCControlUI@2@PB_W@Z 00439fe6 f   DuiLib_ud:DuiLib_ud.dll
 0001:00038fec       ?GetSuperClassName@CWindowWnd@DuiLib@@MBEPB_WXZ 00439fec f   DuiLib_ud:DuiLib_ud.dll
 0001:00038ff2       ?GetData@CStdString@DuiLib@@QAEPB_WXZ 00439ff2 f   DuiLib_ud:DuiLib_ud.dll
 0001:00038ff8       ??BCWindowWnd@DuiLib@@QBEPAUHWND__@@XZ 00439ff8 f   DuiLib_ud:DuiLib_ud.dll
 0001:00038ffe       ?Create@CWindowWnd@DuiLib@@QAEPAUHWND__@@PAU3@PB_WKKHHHHPAUHMENU__@@@Z 00439ffe f   DuiLib_ud:DuiLib_ud.dll
 0001:00039004       ?Close@CWindowWnd@DuiLib@@QAEXI@Z 0043a004 f   DuiLib_ud:DuiLib_ud.dll
 0001:0003900a       ?SendMessageW@CWindowWnd@DuiLib@@QAEJIIJ@Z 0043a00a f   DuiLib_ud:DuiLib_ud.dll
 0001:00039010       ?HandleMessage@CWindowWnd@DuiLib@@MAEJIIJ@Z 0043a010 f   DuiLib_ud:DuiLib_ud.dll
 0001:00039016       ?FindControl@CPaintManagerUI@DuiLib@@QBEPAVCControlUI@2@UtagPOINT@@@Z 0043a016 f   DuiLib_ud:DuiLib_ud.dll
 0001:0003901c       ?IsSelected@COptionUI@DuiLib@@QBE_NXZ 0043a01c f   DuiLib_ud:DuiLib_ud.dll
 0001:00039022       ?Selected@COptionUI@DuiLib@@QAEX_N@Z 0043a022 f   DuiLib_ud:DuiLib_ud.dll
 0001:00039028       ?SetSel@CRichEditUI@DuiLib@@QAEHJJ@Z 0043a028 f   DuiLib_ud:DuiLib_ud.dll
 0001:0003902e       ?GetSelectionType@CRichEditUI@DuiLib@@QBEGXZ 0043a02e f   DuiLib_ud:DuiLib_ud.dll
 0001:00039034       ?SetZoom@CRichEditUI@DuiLib@@QAE_NHH@Z 0043a034 f   DuiLib_ud:DuiLib_ud.dll
 0001:0003903a       ?SetAutoURLDetect@CRichEditUI@DuiLib@@QAE_N_N@Z 0043a03a f   DuiLib_ud:DuiLib_ud.dll
 0001:00039040       ?Copy@CRichEditUI@DuiLib@@QAEXXZ 0043a040 f   DuiLib_ud:DuiLib_ud.dll
 0001:00039046       ?Cut@CRichEditUI@DuiLib@@QAEXXZ 0043a046 f   DuiLib_ud:DuiLib_ud.dll
 0001:0003904c       ?GetTxDropTarget@CRichEditUI@DuiLib@@QAEPAUIDropTarget@@XZ 0043a04c f   DuiLib_ud:DuiLib_ud.dll
 0001:00039052       ?GetTextHost@CRichEditUI@DuiLib@@QAEPAVITextHost@@XZ 0043a052 f   DuiLib_ud:DuiLib_ud.dll
 0001:00039058       ?GetTextServices@CRichEditUI@DuiLib@@QAEPAVITextServices@@XZ 0043a058 f   DuiLib_ud:DuiLib_ud.dll
 0001:0003905e       ?SetOleCallback@CRichEditUI@DuiLib@@QAEHPAUIRichEditOleCallback@@@Z 0043a05e f   DuiLib_ud:DuiLib_ud.dll
 0001:00039064       ?CanPaste@CRichEditUI@DuiLib@@QAEHI@Z 0043a064 f   DuiLib_ud:DuiLib_ud.dll
 0001:0003906a       ?PasteSpecial@CRichEditUI@DuiLib@@QAEXIKPAUHMETAFILE__@@@Z 0043a06a f   DuiLib_ud:DuiLib_ud.dll
 0001:00039070       ?ShowWindow@CWindowWnd@DuiLib@@QAEX_N0@Z 0043a070 f   DuiLib_ud:DuiLib_ud.dll
 0001:00039076       ?CenterWindow@CWindowWnd@DuiLib@@QAEXXZ 0043a076 f   DuiLib_ud:DuiLib_ud.dll
 0001:0003907c       ?SetIcon@CWindowWnd@DuiLib@@QAEXI@Z 0043a07c f   DuiLib_ud:DuiLib_ud.dll
 0001:00039082       ?SetInstance@CPaintManagerUI@DuiLib@@SAXPAUHINSTANCE__@@@Z 0043a082 f   DuiLib_ud:DuiLib_ud.dll
 0001:00039088       ?SetResourcePath@CPaintManagerUI@DuiLib@@SAXPB_W@Z 0043a088 f   DuiLib_ud:DuiLib_ud.dll
 0001:0003908e       ?MessageLoop@CPaintManagerUI@DuiLib@@SAXXZ 0043a08e f   DuiLib_ud:DuiLib_ud.dll
 0001:00039094       ?Term@CPaintManagerUI@DuiLib@@SAXXZ 0043a094 f   DuiLib_ud:DuiLib_ud.dll
 0001:0003909a       ??0CPoint@DuiLib@@QAE@XZ   0043a09a f   DuiLib_ud:DuiLib_ud.dll
 0001:000390a0       ??0CPoint@DuiLib@@QAE@ABUtagPOINT@@@Z 0043a0a0 f   DuiLib_ud:DuiLib_ud.dll
 0001:000390a6       ??0CSize@DuiLib@@QAE@HH@Z  0043a0a6 f   DuiLib_ud:DuiLib_ud.dll
 0001:000390ac       ??0CRect@DuiLib@@QAE@XZ    0043a0ac f   DuiLib_ud:DuiLib_ud.dll
 0001:000390b2       ??0CRect@DuiLib@@QAE@ABUtagRECT@@@Z 0043a0b2 f   DuiLib_ud:DuiLib_ud.dll
 0001:000390b8       ?GetWidth@CRect@DuiLib@@QBEHXZ 0043a0b8 f   DuiLib_ud:DuiLib_ud.dll
 0001:000390be       ?GetHeight@CRect@DuiLib@@QBEHXZ 0043a0be f   DuiLib_ud:DuiLib_ud.dll
 0001:000390c4       ??0CWindowWnd@DuiLib@@QAE@XZ 0043a0c4 f   DuiLib_ud:DuiLib_ud.dll
 0001:000390ca       ?GetHWND@CWindowWnd@DuiLib@@QBEPAUHWND__@@XZ 0043a0ca f   DuiLib_ud:DuiLib_ud.dll
 0001:000390d0       ?Create@CWindowWnd@DuiLib@@QAEPAUHWND__@@PAU3@PB_WKKUtagRECT@@PAUHMENU__@@@Z 0043a0d0 f   DuiLib_ud:DuiLib_ud.dll
 0001:000390d6       ??0CPaintManagerUI@DuiLib@@QAE@XZ 0043a0d6 f   DuiLib_ud:DuiLib_ud.dll
 0001:000390dc       ??1CPaintManagerUI@DuiLib@@QAE@XZ 0043a0dc f   DuiLib_ud:DuiLib_ud.dll
 0001:000390e2       ?Init@CPaintManagerUI@DuiLib@@QAEXPAUHWND__@@@Z 0043a0e2 f   DuiLib_ud:DuiLib_ud.dll
 0001:000390e8       ?GetPaintDC@CPaintManagerUI@DuiLib@@QBEPAUHDC__@@XZ 0043a0e8 f   DuiLib_ud:DuiLib_ud.dll
 0001:000390ee       ?GetPaintWindow@CPaintManagerUI@DuiLib@@QBEPAUHWND__@@XZ 0043a0ee f   DuiLib_ud:DuiLib_ud.dll
 0001:000390f4       ?GetInitSize@CPaintManagerUI@DuiLib@@QAE?AUtagSIZE@@XZ 0043a0f4 f   DuiLib_ud:DuiLib_ud.dll
 0001:000390fa       ?SetInitSize@CPaintManagerUI@DuiLib@@QAEXHH@Z 0043a0fa f   DuiLib_ud:DuiLib_ud.dll
 0001:00039100       ?UseParentResource@CPaintManagerUI@DuiLib@@QAE_NPAV12@@Z 0043a100 f   DuiLib_ud:DuiLib_ud.dll
 0001:00039106       ?GetDefaultAttributeList@CPaintManagerUI@DuiLib@@QBEPB_WPB_W@Z 0043a106 f   DuiLib_ud:DuiLib_ud.dll
 0001:0003910c       ?AttachDialog@CPaintManagerUI@DuiLib@@QAE_NPAVCControlUI@2@@Z 0043a10c f   DuiLib_ud:DuiLib_ud.dll
 0001:00039112       ?MessageHandler@CPaintManagerUI@DuiLib@@QAE_NIIJAAJ@Z 0043a112 f   DuiLib_ud:DuiLib_ud.dll
 0001:00039118       ?SetBkColor@CControlUI@DuiLib@@QAEXK@Z 0043a118 f   DuiLib_ud:DuiLib_ud.dll
 0001:0003911e       ?SetBorderColor@CControlUI@DuiLib@@QAEXK@Z 0043a11e f   DuiLib_ud:DuiLib_ud.dll
 0001:00039124       ?SetBorderSize@CControlUI@DuiLib@@QAEXH@Z 0043a124 f   DuiLib_ud:DuiLib_ud.dll
 0001:0003912a       ?ApplyAttributeList@CControlUI@DuiLib@@QAEPAV12@PB_W@Z 0043a12a f   DuiLib_ud:DuiLib_ud.dll
 0001:00039130       ?SetMouseChildEnabled@CContainerUI@DuiLib@@UAEX_N@Z 0043a130 f   DuiLib_ud:DuiLib_ud.dll
 0001:00039136       ??0CListUI@DuiLib@@QAE@XZ  0043a136 f   DuiLib_ud:DuiLib_ud.dll
 0001:0003913c       ?GetInterface@CListUI@DuiLib@@UAEPAXPB_W@Z 0043a13c f   DuiLib_ud:DuiLib_ud.dll
 0001:00039142       ?GetHeader@CListUI@DuiLib@@UBEPAVCListHeaderUI@2@XZ 0043a142 f   DuiLib_ud:DuiLib_ud.dll
 0001:00039148       ?GetItemIndex@CListUI@DuiLib@@UBEHPAVCControlUI@2@@Z 0043a148 f   DuiLib_ud:DuiLib_ud.dll
 0001:0003914e       ?SetItemIndex@CListUI@DuiLib@@UAE_NPAVCControlUI@2@H@Z 0043a14e f   DuiLib_ud:DuiLib_ud.dll
 0001:00039154       ?Add@CListUI@DuiLib@@UAE_NPAVCControlUI@2@@Z 0043a154 f   DuiLib_ud:DuiLib_ud.dll
 0001:0003915a       ?AddAt@CListUI@DuiLib@@UAE_NPAVCControlUI@2@H@Z 0043a15a f   DuiLib_ud:DuiLib_ud.dll
 0001:00039160       ?Remove@CListUI@DuiLib@@UAE_NPAVCControlUI@2@@Z 0043a160 f   DuiLib_ud:DuiLib_ud.dll
 0001:00039166       ?DoEvent@CListUI@DuiLib@@UAEXAAUtagTEventUI@2@@Z 0043a166 f   DuiLib_ud:DuiLib_ud.dll
 0001:0003916c       ?SetAttribute@CListUI@DuiLib@@UAEXPB_W0@Z 0043a16c f   DuiLib_ud:DuiLib_ud.dll
 0001:00039172       ??1CListUI@DuiLib@@UAE@XZ  0043a172 f   DuiLib_ud:DuiLib_ud.dll
 0001:00039178       ??0CListContainerElementUI@DuiLib@@QAE@XZ 0043a178 f   DuiLib_ud:DuiLib_ud.dll
 0001:0003917e       ?GetInterface@CListContainerElementUI@DuiLib@@UAEPAXPB_W@Z 0043a17e f   DuiLib_ud:DuiLib_ud.dll
 0001:00039184       ?Invalidate@CListContainerElementUI@DuiLib@@QAEXXZ 0043a184 f   DuiLib_ud:DuiLib_ud.dll
 0001:0003918a       ?Activate@CListContainerElementUI@DuiLib@@UAE_NXZ 0043a18a f   DuiLib_ud:DuiLib_ud.dll
 0001:00039190       ?DoEvent@CListContainerElementUI@DuiLib@@UAEXAAUtagTEventUI@2@@Z 0043a190 f   DuiLib_ud:DuiLib_ud.dll
 0001:00039196       ?SetAttribute@CListContainerElementUI@DuiLib@@UAEXPB_W0@Z 0043a196 f   DuiLib_ud:DuiLib_ud.dll
 0001:0003919c       ?DrawItemBk@CListContainerElementUI@DuiLib@@QAEXPAUHDC__@@ABUtagRECT@@@Z 0043a19c f   DuiLib_ud:DuiLib_ud.dll
 0001:000391a2       ??1CListContainerElementUI@DuiLib@@UAE@XZ 0043a1a2 f   DuiLib_ud:DuiLib_ud.dll
 0001:000391a8       ??0CDialogBuilder@DuiLib@@QAE@XZ 0043a1a8 f   DuiLib_ud:DuiLib_ud.dll
 0001:000391ae       ?Create@CDialogBuilder@DuiLib@@QAEPAVCControlUI@2@VSTRINGorID@2@PB_WPAVIDialogBuilderCallback@2@PAVCPaintManagerUI@2@PAV32@@Z 0043a1ae f   DuiLib_ud:DuiLib_ud.dll
 0001:000391b4       ??1CDialogBuilder@DuiLib@@QAE@XZ 0043a1b4 f   DuiLib_ud:DuiLib_ud.dll
 0001:000391ba       ?DrawImageString@CRenderEngine@DuiLib@@SA_NPAUHDC__@@PAVCPaintManagerUI@2@ABUtagRECT@@2PB_W3@Z 0043a1ba f   DuiLib_ud:DuiLib_ud.dll
 0001:000391c0       ?DrawTextW@CRenderEngine@DuiLib@@SAXPAUHDC__@@PAVCPaintManagerUI@2@AAUtagRECT@@PB_WKHI@Z 0043a1c0 f   DuiLib_ud:DuiLib_ud.dll
 0001:000391c6       ?DrawHtmlText@CRenderEngine@DuiLib@@SAXPAUHDC__@@PAVCPaintManagerUI@2@AAUtagRECT@@PB_WKPAU5@PAVCStdString@2@AAHI@Z 0043a1c6 f   DuiLib_ud:DuiLib_ud.dll
 0001:000391cc       ?Add@CContainerUI@DuiLib@@UAE_NPAVCControlUI@2@@Z 0043a1cc f   DuiLib_ud:DuiLib_ud.dll
 0001:000391d2       ?AddAt@CContainerUI@DuiLib@@UAE_NPAVCControlUI@2@H@Z 0043a1d2 f   DuiLib_ud:DuiLib_ud.dll
 0001:000391d8       ?DoPaint@CContainerUI@DuiLib@@UAEXPAUHDC__@@ABUtagRECT@@@Z 0043a1d8 f   DuiLib_ud:DuiLib_ud.dll
 0001:000391de       ?DoPostPaint@CVerticalLayoutUI@DuiLib@@UAEXPAUHDC__@@ABUtagRECT@@@Z 0043a1de f   DuiLib_ud:DuiLib_ud.dll
 0001:000391e4       ?EnableScrollBar@CContainerUI@DuiLib@@UAEX_N0@Z 0043a1e4 f   DuiLib_ud:DuiLib_ud.dll
 0001:000391ea       ?EnableScrollBar@CListUI@DuiLib@@UAEX_N0@Z 0043a1ea f   DuiLib_ud:DuiLib_ud.dll
 0001:000391f0       ?EndDown@CContainerUI@DuiLib@@UAEXXZ 0043a1f0 f   DuiLib_ud:DuiLib_ud.dll
 0001:000391f6       ?EndDown@CListUI@DuiLib@@UAEXXZ 0043a1f6 f   DuiLib_ud:DuiLib_ud.dll
 0001:000391fc       ?EndRight@CContainerUI@DuiLib@@UAEXXZ 0043a1fc f   DuiLib_ud:DuiLib_ud.dll
 0001:00039202       ?EndRight@CListUI@DuiLib@@UAEXXZ 0043a202 f   DuiLib_ud:DuiLib_ud.dll
 0001:00039208       ?Expand@CListContainerElementUI@DuiLib@@UAE_N_N@Z 0043a208 f   DuiLib_ud:DuiLib_ud.dll
 0001:0003920e       ?ExpandItem@CListUI@DuiLib@@UAE_NH_N@Z 0043a20e f   DuiLib_ud:DuiLib_ud.dll
 0001:00039214       ?FindControl@CContainerUI@DuiLib@@UAEPAVCControlUI@2@P6GPAV32@PAV32@PAX@Z1I@Z 0043a214 f   DuiLib_ud:DuiLib_ud.dll
 0001:0003921a       ?FindSelectable@CContainerUI@DuiLib@@UBEHH_N@Z 0043a21a f   DuiLib_ud:DuiLib_ud.dll
 0001:00039220       ?GetChildPadding@CContainerUI@DuiLib@@UBEHXZ 0043a220 f   DuiLib_ud:DuiLib_ud.dll
 0001:00039226       ?GetChildPadding@CListUI@DuiLib@@UBEHXZ 0043a226 f   DuiLib_ud:DuiLib_ud.dll
 0001:0003922c       ?GetClassStyle@CWindowWnd@DuiLib@@MBEIXZ 0043a22c f   DuiLib_ud:DuiLib_ud.dll
 0001:00039232       ?GetControlFlags@CListContainerElementUI@DuiLib@@UBEIXZ 0043a232 f   DuiLib_ud:DuiLib_ud.dll
 0001:00039238       ?GetControlFlags@CListUI@DuiLib@@UBEIXZ 0043a238 f   DuiLib_ud:DuiLib_ud.dll
 0001:0003923e       ?GetCount@CContainerUI@DuiLib@@UBEHXZ 0043a23e f   DuiLib_ud:DuiLib_ud.dll
 0001:00039244       ?GetCount@CListUI@DuiLib@@UBEHXZ 0043a244 f   DuiLib_ud:DuiLib_ud.dll
 0001:0003924a       ?GetCurSel@CListUI@DuiLib@@UBEHXZ 0043a24a f   DuiLib_ud:DuiLib_ud.dll
 0001:00039250       ?GetExpandedItem@CListUI@DuiLib@@UBEHXZ 0043a250 f   DuiLib_ud:DuiLib_ud.dll
 0001:00039256       ?GetHorizontalScrollBar@CContainerUI@DuiLib@@UBEPAVCScrollBarUI@2@XZ 0043a256 f   DuiLib_ud:DuiLib_ud.dll
 0001:0003925c       ?GetHorizontalScrollBar@CListUI@DuiLib@@UBEPAVCScrollBarUI@2@XZ 0043a25c f   DuiLib_ud:DuiLib_ud.dll
 0001:00039262       ?GetIndex@CListContainerElementUI@DuiLib@@UBEHXZ 0043a262 f   DuiLib_ud:DuiLib_ud.dll
 0001:00039268       ?GetInset@CContainerUI@DuiLib@@UBE?AUtagRECT@@XZ 0043a268 f   DuiLib_ud:DuiLib_ud.dll
 0001:0003926e       ?GetItemAt@CContainerUI@DuiLib@@UBEPAVCControlUI@2@H@Z 0043a26e f   DuiLib_ud:DuiLib_ud.dll
 0001:00039274       ?GetItemAt@CListUI@DuiLib@@UBEPAVCControlUI@2@H@Z 0043a274 f   DuiLib_ud:DuiLib_ud.dll
 0001:0003927a       ?GetItemIndex@CContainerUI@DuiLib@@UBEHPAVCControlUI@2@@Z 0043a27a f   DuiLib_ud:DuiLib_ud.dll
 0001:00039280       ?GetList@CListUI@DuiLib@@UBEPAVCContainerUI@2@XZ 0043a280 f   DuiLib_ud:DuiLib_ud.dll
 0001:00039286       ?GetListInfo@CListUI@DuiLib@@UAEPAUtagTListInfoUI@2@XZ 0043a286 f   DuiLib_ud:DuiLib_ud.dll
 0001:0003928c       ?GetOwner@CListContainerElementUI@DuiLib@@UAEPAVIListOwnerUI@2@XZ 0043a28c f   DuiLib_ud:DuiLib_ud.dll
 0001:00039292       ?GetScrollPos@CContainerUI@DuiLib@@UBE?AUtagSIZE@@XZ 0043a292 f   DuiLib_ud:DuiLib_ud.dll
 0001:00039298       ?GetScrollPos@CListUI@DuiLib@@UBE?AUtagSIZE@@XZ 0043a298 f   DuiLib_ud:DuiLib_ud.dll
 0001:0003929e       ?GetScrollRange@CContainerUI@DuiLib@@UBE?AUtagSIZE@@XZ 0043a29e f   DuiLib_ud:DuiLib_ud.dll
 0001:000392a4       ?GetScrollRange@CListUI@DuiLib@@UBE?AUtagSIZE@@XZ 0043a2a4 f   DuiLib_ud:DuiLib_ud.dll
 0001:000392aa       ?GetTextCallback@CListUI@DuiLib@@UBEPAVIListCallbackUI@2@XZ 0043a2aa f   DuiLib_ud:DuiLib_ud.dll
 0001:000392b0       ?GetVerticalScrollBar@CContainerUI@DuiLib@@UBEPAVCScrollBarUI@2@XZ 0043a2b0 f   DuiLib_ud:DuiLib_ud.dll
 0001:000392b6       ?GetVerticalScrollBar@CListUI@DuiLib@@UBEPAVCScrollBarUI@2@XZ 0043a2b6 f   DuiLib_ud:DuiLib_ud.dll
 0001:000392bc       ?HomeLeft@CContainerUI@DuiLib@@UAEXXZ 0043a2bc f   DuiLib_ud:DuiLib_ud.dll
 0001:000392c2       ?HomeLeft@CListUI@DuiLib@@UAEXXZ 0043a2c2 f   DuiLib_ud:DuiLib_ud.dll
 0001:000392c8       ?HomeUp@CContainerUI@DuiLib@@UAEXXZ 0043a2c8 f   DuiLib_ud:DuiLib_ud.dll
 0001:000392ce       ?HomeUp@CListUI@DuiLib@@UAEXXZ 0043a2ce f   DuiLib_ud:DuiLib_ud.dll
 0001:000392d4       ?IsAutoDestroy@CContainerUI@DuiLib@@UBE_NXZ 0043a2d4 f   DuiLib_ud:DuiLib_ud.dll
 0001:000392da       ?IsDelayedDestroy@CContainerUI@DuiLib@@UBE_NXZ 0043a2da f   DuiLib_ud:DuiLib_ud.dll
 0001:000392e0       ?IsExpanded@CListContainerElementUI@DuiLib@@UBE_NXZ 0043a2e0 f   DuiLib_ud:DuiLib_ud.dll
 0001:000392e6       ?IsMouseChildEnabled@CContainerUI@DuiLib@@UBE_NXZ 0043a2e6 f   DuiLib_ud:DuiLib_ud.dll
 0001:000392ec       ?IsSelected@CListContainerElementUI@DuiLib@@UBE_NXZ 0043a2ec f   DuiLib_ud:DuiLib_ud.dll
 0001:000392f2       ?LineDown@CContainerUI@DuiLib@@UAEXXZ 0043a2f2 f   DuiLib_ud:DuiLib_ud.dll
 0001:000392f8       ?LineDown@CListUI@DuiLib@@UAEXXZ 0043a2f8 f   DuiLib_ud:DuiLib_ud.dll
 0001:000392fe       ?LineLeft@CContainerUI@DuiLib@@UAEXXZ 0043a2fe f   DuiLib_ud:DuiLib_ud.dll
 0001:00039304       ?LineLeft@CListUI@DuiLib@@UAEXXZ 0043a304 f   DuiLib_ud:DuiLib_ud.dll
 0001:0003930a       ?LineRight@CContainerUI@DuiLib@@UAEXXZ 0043a30a f   DuiLib_ud:DuiLib_ud.dll
 0001:00039310       ?LineRight@CListUI@DuiLib@@UAEXXZ 0043a310 f   DuiLib_ud:DuiLib_ud.dll
 0001:00039316       ?LineUp@CContainerUI@DuiLib@@UAEXXZ 0043a316 f   DuiLib_ud:DuiLib_ud.dll
 0001:0003931c       ?LineUp@CListUI@DuiLib@@UAEXXZ 0043a31c f   DuiLib_ud:DuiLib_ud.dll
 0001:00039322       ?PageDown@CContainerUI@DuiLib@@UAEXXZ 0043a322 f   DuiLib_ud:DuiLib_ud.dll
 0001:00039328       ?PageDown@CListUI@DuiLib@@UAEXXZ 0043a328 f   DuiLib_ud:DuiLib_ud.dll
 0001:0003932e       ?PageLeft@CContainerUI@DuiLib@@UAEXXZ 0043a32e f   DuiLib_ud:DuiLib_ud.dll
 0001:00039334       ?PageLeft@CListUI@DuiLib@@UAEXXZ 0043a334 f   DuiLib_ud:DuiLib_ud.dll
 0001:0003933a       ?PageRight@CContainerUI@DuiLib@@UAEXXZ 0043a33a f   DuiLib_ud:DuiLib_ud.dll
 0001:00039340       ?PageRight@CListUI@DuiLib@@UAEXXZ 0043a340 f   DuiLib_ud:DuiLib_ud.dll
 0001:00039346       ?PageUp@CContainerUI@DuiLib@@UAEXXZ 0043a346 f   DuiLib_ud:DuiLib_ud.dll
 0001:0003934c       ?PageUp@CListUI@DuiLib@@UAEXXZ 0043a34c f   DuiLib_ud:DuiLib_ud.dll
 0001:00039352       ?PaintStatusImage@CControlUI@DuiLib@@UAEXPAUHDC__@@@Z 0043a352 f   DuiLib_ud:DuiLib_ud.dll
 0001:00039358       ?ProcessScrollBar@CContainerUI@DuiLib@@MAEXUtagRECT@@HH@Z 0043a358 f   DuiLib_ud:DuiLib_ud.dll
 0001:0003935e       ?Remove@CContainerUI@DuiLib@@UAE_NPAVCControlUI@2@@Z 0043a35e f   DuiLib_ud:DuiLib_ud.dll
 0001:00039364       ?RemoveAll@CContainerUI@DuiLib@@UAEXXZ 0043a364 f   DuiLib_ud:DuiLib_ud.dll
 0001:0003936a       ?RemoveAll@CListUI@DuiLib@@UAEXXZ 0043a36a f   DuiLib_ud:DuiLib_ud.dll
 0001:00039370       ?RemoveAt@CContainerUI@DuiLib@@UAE_NH@Z 0043a370 f   DuiLib_ud:DuiLib_ud.dll
 0001:00039376       ?RemoveAt@CListUI@DuiLib@@UAE_NH@Z 0043a376 f   DuiLib_ud:DuiLib_ud.dll
 0001:0003937c       ?Select@CListContainerElementUI@DuiLib@@UAE_N_N@Z 0043a37c f   DuiLib_ud:DuiLib_ud.dll
 0001:00039382       ?SelectItem@CListUI@DuiLib@@UAE_NH_N@Z 0043a382 f   DuiLib_ud:DuiLib_ud.dll
 0001:00039388       ?SetAutoDestroy@CContainerUI@DuiLib@@UAEX_N@Z 0043a388 f   DuiLib_ud:DuiLib_ud.dll
 0001:0003938e       ?SetChildPadding@CContainerUI@DuiLib@@UAEXH@Z 0043a38e f   DuiLib_ud:DuiLib_ud.dll
 0001:00039394       ?SetChildPadding@CListUI@DuiLib@@UAEXH@Z 0043a394 f   DuiLib_ud:DuiLib_ud.dll
 0001:0003939a       ?SetDelayedDestroy@CContainerUI@DuiLib@@UAEX_N@Z 0043a39a f   DuiLib_ud:DuiLib_ud.dll
 0001:000393a0       ?SetEnabled@CListContainerElementUI@DuiLib@@UAEX_N@Z 0043a3a0 f   DuiLib_ud:DuiLib_ud.dll
 0001:000393a6       ?SetFloatPos@CContainerUI@DuiLib@@MAEXH@Z 0043a3a6 f   DuiLib_ud:DuiLib_ud.dll
 0001:000393ac       ?SetIndex@CListContainerElementUI@DuiLib@@UAEXH@Z 0043a3ac f   DuiLib_ud:DuiLib_ud.dll
 0001:000393b2       ?SetInset@CContainerUI@DuiLib@@UAEXUtagRECT@@@Z 0043a3b2 f   DuiLib_ud:DuiLib_ud.dll
 0001:000393b8       ?SetInternVisible@CContainerUI@DuiLib@@UAEX_N@Z 0043a3b8 f   DuiLib_ud:DuiLib_ud.dll
 0001:000393be       ?SetItemIndex@CContainerUI@DuiLib@@UAE_NPAVCControlUI@2@H@Z 0043a3be f   DuiLib_ud:DuiLib_ud.dll
 0001:000393c4       ?SetManager@CContainerUI@DuiLib@@UAEXPAVCPaintManagerUI@2@PAVCControlUI@2@_N@Z 0043a3c4 f   DuiLib_ud:DuiLib_ud.dll
 0001:000393ca       ?SetMouseEnabled@CContainerUI@DuiLib@@UAEX_N@Z 0043a3ca f   DuiLib_ud:DuiLib_ud.dll
 0001:000393d0       ?SetOwner@CListContainerElementUI@DuiLib@@UAEXPAVCControlUI@2@@Z 0043a3d0 f   DuiLib_ud:DuiLib_ud.dll
 0001:000393d6       ?SetPos@CContainerUI@DuiLib@@UAEXUtagRECT@@@Z 0043a3d6 f   DuiLib_ud:DuiLib_ud.dll
 0001:000393dc       ?SetPos@CListUI@DuiLib@@UAEXUtagRECT@@@Z 0043a3dc f   DuiLib_ud:DuiLib_ud.dll
 0001:000393e2       ?SetScrollPos@CContainerUI@DuiLib@@UAEXUtagSIZE@@@Z 0043a3e2 f   DuiLib_ud:DuiLib_ud.dll
 0001:000393e8       ?SetScrollPos@CListUI@DuiLib@@UAEXUtagSIZE@@@Z 0043a3e8 f   DuiLib_ud:DuiLib_ud.dll
 0001:000393ee       ?SetTextCallback@CListUI@DuiLib@@UAEXPAVIListCallbackUI@2@@Z 0043a3ee f   DuiLib_ud:DuiLib_ud.dll
 0001:000393f4       ?SetVisible@CContainerUI@DuiLib@@UAEX_N@Z 0043a3f4 f   DuiLib_ud:DuiLib_ud.dll
 0001:000393fa       ?SetVisible@CListContainerElementUI@DuiLib@@UAEX_N@Z 0043a3fa f   DuiLib_ud:DuiLib_ud.dll
 0001:00039400       ?Offset@CRect@DuiLib@@QAEXHH@Z 0043a400 f   DuiLib_ud:DuiLib_ud.dll
 0001:00039406       ??0CStdString@DuiLib@@QAE@ABV01@@Z 0043a406 f   DuiLib_ud:DuiLib_ud.dll
 0001:0003940c       ??YCStdString@DuiLib@@QAEABV01@ABV01@@Z 0043a40c f   DuiLib_ud:DuiLib_ud.dll
 0001:00039412       ?GetSizeBox@CPaintManagerUI@DuiLib@@QAEAAUtagRECT@@XZ 0043a412 f   DuiLib_ud:DuiLib_ud.dll
 0001:00039418       ?GetCaptionRect@CPaintManagerUI@DuiLib@@QAEAAUtagRECT@@XZ 0043a418 f   DuiLib_ud:DuiLib_ud.dll
 0001:0003941e       ?GetRoundCorner@CPaintManagerUI@DuiLib@@QBE?AUtagSIZE@@XZ 0043a41e f   DuiLib_ud:DuiLib_ud.dll
 0001:00039424       ?GetResourcePath@CPaintManagerUI@DuiLib@@SAABVCStdString@2@XZ 0043a424 f   DuiLib_ud:DuiLib_ud.dll
 0001:0003942a       ?ReapObjects@CPaintManagerUI@DuiLib@@QAEXPAVCControlUI@2@@Z 0043a42a f   DuiLib_ud:DuiLib_ud.dll
 0001:00039430       ?AddNotifier@CPaintManagerUI@DuiLib@@QAE_NPAVINotifyUI@2@@Z 0043a430 f   DuiLib_ud:DuiLib_ud.dll
 0001:00039436       ?RemoveNotifier@CPaintManagerUI@DuiLib@@QAE_NPAVINotifyUI@2@@Z 0043a436 f   DuiLib_ud:DuiLib_ud.dll
 0001:0003943c       ?AddPreMessageFilter@CPaintManagerUI@DuiLib@@QAE_NPAVIMessageFilterUI@2@@Z 0043a43c f   DuiLib_ud:DuiLib_ud.dll
 0001:00039442       ?RemovePreMessageFilter@CPaintManagerUI@DuiLib@@QAE_NPAVIMessageFilterUI@2@@Z 0043a442 f   DuiLib_ud:DuiLib_ud.dll
 0001:00039448       ?GetRoot@CPaintManagerUI@DuiLib@@QBEPAVCControlUI@2@XZ 0043a448 f   DuiLib_ud:DuiLib_ud.dll
 0001:0003944e       ??0_Lockit@std@@QAE@H@Z    0043a44e f   msvcprtd:MSVCP120D.dll
 0001:00039454       ??1_Lockit@std@@QAE@XZ     0043a454 f   msvcprtd:MSVCP120D.dll
 0001:0003945a       ?_Debug_message@std@@YAXPB_W0I@Z 0043a45a f   msvcprtd:MSVCP120D.dll
 0001:00039460       ??0_Container_base12@std@@QAE@XZ 0043a460 f   msvcprtd:MSVCP120D.dll
 0001:00039466       ??1_Container_base12@std@@QAE@XZ 0043a466 f   msvcprtd:MSVCP120D.dll
 0001:0003946c       ?_Getpfirst@_Container_base12@std@@QBEPAPAU_Iterator_base12@2@XZ 0043a46c f   msvcprtd:MSVCP120D.dll
 0001:00039472       ?_Orphan_all@_Container_base12@std@@QAEXXZ 0043a472 f   msvcprtd:MSVCP120D.dll
 0001:00039478       ?_Xbad_alloc@std@@YAXXZ    0043a478 f   msvcprtd:MSVCP120D.dll
 0001:0003947e       ?_Xlength_error@std@@YAXPBD@Z 0043a47e f   msvcprtd:MSVCP120D.dll
 0001:00039484       ?_Xout_of_range@std@@YAXPBD@Z 0043a484 f   msvcprtd:MSVCP120D.dll
 0001:00039490       ??_U@YAPAXI@Z              0043a490 f   msvcprtd:newaop_s.obj
 0001:000394a2       ??0id@locale@std@@QAE@I@Z  0043a4a2 f   msvcprtd:MSVCP120D.dll
 0001:000394a8       ?_Syserror_map@std@@YAPBDH@Z 0043a4a8 f   msvcprtd:MSVCP120D.dll
 0001:000394ae       ?_Winerror_map@std@@YAPBDH@Z 0043a4ae f   msvcprtd:MSVCP120D.dll
 0001:000394b4       ??3@YAXPAX@Z               0043a4b4 f   MSVCRTD:MSVCR120D.dll
 0001:000394ba       _wcscmp                    0043a4ba f   MSVCRTD:MSVCR120D.dll
 0001:000394c0       @_RTC_AllocaHelper@12      0043a4c0 f   MSVCRTD:stack.obj
 0001:00039500       @_RTC_CheckStackVars2@12   0043a500 f   MSVCRTD:stack.obj
 0001:000395e0       @_RTC_CheckStackVars@8     0043a5e0 f   MSVCRTD:stack.obj
 0001:00039640       __RTC_CheckEsp             0043a640 f   MSVCRTD:stack.obj
 0001:00039670       @__security_check_cookie@4 0043a670 f   MSVCRTD:secchk.obj
 0001:00039680       __RTC_InitBase             0043a680 f   MSVCRTD:init.obj
 0001:000396b0       __RTC_Shutdown             0043a6b0 f   MSVCRTD:init.obj
 0001:000396c4       ___CxxFrameHandler3        0043a6c4 f   MSVCRTD:MSVCR120D.dll
 0001:000396d0       ??0type_info@@AAE@ABV0@@Z  0043a6d0 f   MSVCRTD:ti_inst.obj
 0001:000396f0       ??4type_info@@AAEAAV0@ABV0@@Z 0043a6f0 f   MSVCRTD:ti_inst.obj
 0001:00039700       ??_Etype_info@@UAEPAXI@Z   0043a700 f i MSVCRTD:ti_inst.obj
 0001:0003976a       ??2@YAPAXI@Z               0043a76a f   MSVCRTD:MSVCR120D.dll
 0001:00039770       __invalid_parameter        0043a770 f   MSVCRTD:MSVCR120D.dll
 0001:00039776       _memmove                   0043a776 f   MSVCRTD:MSVCR120D.dll
 0001:0003977c       __CrtDbgReportW            0043a77c f   MSVCRTD:MSVCR120D.dll
 0001:00039782       __CxxThrowException@8      0043a782 f   MSVCRTD:MSVCR120D.dll
 0001:00039788       _memcpy                    0043a788 f   MSVCRTD:MSVCR120D.dll
 0001:0003978e       _wcslen                    0043a78e f   MSVCRTD:MSVCR120D.dll
 0001:00039794       _wcstol                    0043a794 f   MSVCRTD:MSVCR120D.dll
 0001:0003979a       __wcsicmp                  0043a79a f   MSVCRTD:MSVCR120D.dll
 0001:000397a0       _memset                    0043a7a0 f   MSVCRTD:MSVCR120D.dll
 0001:000397a6       _wcsncpy                   0043a7a6 f   MSVCRTD:MSVCR120D.dll
 0001:000397ac       ??_V@YAXPAX@Z              0043a7ac f   MSVCRTD:MSVCR120D.dll
 0001:000397b2       _memcmp                    0043a7b2 f   MSVCRTD:MSVCR120D.dll
 0001:000397b8       _wcschr                    0043a7b8 f   MSVCRTD:MSVCR120D.dll
 0001:000397be       _wcsrchr                   0043a7be f   MSVCRTD:MSVCR120D.dll
 0001:000397c4       _free                      0043a7c4 f   MSVCRTD:MSVCR120D.dll
 0001:000397ca       _malloc                    0043a7ca f   MSVCRTD:MSVCR120D.dll
 0001:000397d0       ___atonexitinit            0043a7d0 f   MSVCRTD:atonexit.obj
 0001:00039880       __onexit                   0043a880 f   MSVCRTD:atonexit.obj
 0001:00039980       _atexit                    0043a980 f   MSVCRTD:atonexit.obj
 0001:000399ac       _wcsstr                    0043a9ac f   MSVCRTD:MSVCR120D.dll
 0001:000399b2       __time64                   0043a9b2 f   MSVCRTD:MSVCR120D.dll
 0001:000399c0       __chkstk                   0043a9c0 f   MSVCRTD:chkstk.obj
 0001:000399c0       __alloca_probe             0043a9c0 f   MSVCRTD:chkstk.obj
 0001:000399ec       _wcscat                    0043a9ec f   MSVCRTD:MSVCR120D.dll
 0001:000399f2       _wcscpy                    0043a9f2 f   MSVCRTD:MSVCR120D.dll
 0001:000399f8       __purecall                 0043a9f8 f   MSVCRTD:MSVCR120D.dll
 0001:000399fe       _strlen                    0043a9fe f   MSVCRTD:MSVCR120D.dll
 0001:00039a04       __hypot                    0043aa04 f   MSVCRTD:MSVCR120D.dll
 0001:00039a10       ___RTDynamicCast           0043aa10 f   MSVCRTD:MSVCR120D.dll
 0001:00039a16       _isdigit                   0043aa16 f   MSVCRTD:MSVCR120D.dll
 0001:00039a1c       _wcsftime                  0043aa1c f   MSVCRTD:MSVCR120D.dll
 0001:00039a22       __localtime64              0043aa22 f   MSVCRTD:MSVCR120D.dll
 0001:00039a28       __wtoi                     0043aa28 f   MSVCRTD:MSVCR120D.dll
 0001:00039b20       _NtCurrentTeb              0043ab20 f i MSVCRTD:wcrtexew.obj
 0001:00039e80       _wWinMainCRTStartup        0043ae80 f   MSVCRTD:wcrtexew.obj
 0001:00039fe0       ?_RTC_AllocaFailure@@YAXPAXPAU_RTC_ALLOCA_NODE@@H@Z 0043afe0 f   MSVCRTD:error.obj
 0001:0003a160       ?_RTC_Failure@@YAXPAXH@Z   0043b160 f   MSVCRTD:error.obj
 0001:0003a1b0       ?_RTC_StackFailure@@YAXPAXPBD@Z 0043b1b0 f   MSVCRTD:error.obj
 0001:0003a530       __RTC_UninitUse            0043b530 f   MSVCRTD:error.obj
 0001:0003a620       ___raise_securityfailure   0043b620 f   MSVCRTD:gs_report.obj
 0001:0003a670       ___report_gsfailure        0043b670 f   MSVCRTD:gs_report.obj
 0001:0003a780       ___report_rangecheckfailure 0043b780 f   MSVCRTD:gs_report.obj
 0001:0003a790       ___report_securityfailure  0043b790 f   MSVCRTD:gs_report.obj
 0001:0003a870       ___report_securityfailureEx 0043b870 f   MSVCRTD:gs_report.obj
 0001:0003a9a0       ?_RTC_GetErrorFunc@@YAP6AHHPBDH00ZZPBX@Z 0043b9a0 f   MSVCRTD:userapi.obj
 0001:0003a9b0       ?_RTC_GetErrorFuncW@@YAP6AHHPB_WH00ZZPBX@Z 0043b9b0 f   MSVCRTD:userapi.obj
 0001:0003a9c0       __RTC_GetErrDesc           0043b9c0 f   MSVCRTD:userapi.obj
 0001:0003a9e0       __RTC_NumErrors            0043b9e0 f   MSVCRTD:userapi.obj
 0001:0003a9f0       __RTC_SetErrorFunc         0043b9f0 f   MSVCRTD:userapi.obj
 0001:0003aa10       __RTC_SetErrorFuncW        0043ba10 f   MSVCRTD:userapi.obj
 0001:0003aa30       __RTC_SetErrorType         0043ba30 f   MSVCRTD:userapi.obj
 0001:0003aa54       __CRT_RTC_INITW            0043ba54 f   MSVCRTD:MSVCR120D.dll
 0001:0003aa60       ??_M@YGXPAXIHP6EX0@Z@Z     0043ba60 f   MSVCRTD:ehvecdtr.obj
 0001:0003ab40       ?__ArrayUnwind@@YGXPAXIHP6EX0@Z@Z 0043bb40 f   MSVCRTD:ehvecdtr.obj
 0001:0003abca       ??1type_info@@UAE@XZ       0043bbca f   MSVCRTD:MSVCR120D.dll
 0001:0003abd0       __lock                     0043bbd0 f   MSVCRTD:MSVCR120D.dll
 0001:0003abd6       __unlock                   0043bbd6 f   MSVCRTD:MSVCR120D.dll
 0001:0003abdc       __calloc_dbg               0043bbdc f   MSVCRTD:MSVCR120D.dll
 0001:0003abe2       ___dllonexit               0043bbe2 f   MSVCRTD:MSVCR120D.dll
 0001:0003abf0       __except_handler4          0043bbf0 f   MSVCRTD:chandler4gs.obj
 0001:0003ac20       ?__CxxUnhandledExceptionFilter@@YGJPAU_EXCEPTION_POINTERS@@@Z 0043bc20 f   MSVCRTD:unhandld.obj
 0001:0003ac90       ___CxxSetUnhandledExceptionFilter 0043bc90 f   MSVCRTD:unhandld.obj
 0001:0003aca4       __XcptFilter               0043bca4 f   MSVCRTD:MSVCR120D.dll
 0001:0003acaa       ___crtGetShowWindowMode    0043bcaa f   MSVCRTD:MSVCR120D.dll
 0001:0003acb0       __amsg_exit                0043bcb0 f   MSVCRTD:MSVCR120D.dll
 0001:0003acc0       __wsetargv                 0043bcc0 f   MSVCRTD:wdllargv.obj
 0001:0003acc8       ___wgetmainargs            0043bcc8 f   MSVCRTD:MSVCR120D.dll
 0001:0003acce       ___set_app_type            0043bcce f   MSVCRTD:MSVCR120D.dll
 0001:0003acd4       __CrtSetCheckCount         0043bcd4 f   MSVCRTD:MSVCR120D.dll
 0001:0003ace0       __FindPESection            0043bce0 f   MSVCRTD:pesect.obj
 0001:0003ad60       __IsNonwritableInCurrentImage 0043bd60 f   MSVCRTD:pesect.obj
 0001:0003ae90       __ValidateImageBase        0043be90 f   MSVCRTD:pesect.obj
 0001:0003aeee       _exit                      0043beee f   MSVCRTD:MSVCR120D.dll
 0001:0003aef4       __exit                     0043bef4 f   MSVCRTD:MSVCR120D.dll
 0001:0003aefa       __cexit                    0043befa f   MSVCRTD:MSVCR120D.dll
 0001:0003af00       ___security_init_cookie    0043bf00 f   MSVCRTD:gs_support.obj
 0001:0003afe0       __matherr                  0043bfe0 f   MSVCRTD:merr.obj
 0001:0003aff0       __RTC_Initialize           0043bff0 f   MSVCRTD:initsect.obj
 0001:0003b020       __RTC_Terminate            0043c020 f   MSVCRTD:initsect.obj
 0001:0003b046       __configthreadlocale       0043c046 f   MSVCRTD:MSVCR120D.dll
 0001:0003b050       __invoke_watson_if_error   0043c050 f i MSVCRTD:fp8.obj
 0001:0003b080       __setdefaultprecision      0043c080 f   MSVCRTD:fp8.obj
 0001:0003b0b6       ___setusermatherr          0043c0b6 f   MSVCRTD:MSVCR120D.dll
 0001:0003b0bc       __initterm_e               0043c0bc f   MSVCRTD:MSVCR120D.dll
 0001:0003b0c2       __initterm                 0043c0c2 f   MSVCRTD:MSVCR120D.dll
 0001:0003b510       ?_RTC_GetSrcLine@@YAHPAEPA_WKPAH1K@Z 0043c510 f   MSVCRTD:pdblkup.obj
 0001:0003b7be       __crt_debugger_hook        0043c7be f   MSVCRTD:MSVCR120D.dll
 0001:0003b7c4       ___crtUnhandledException   0043c7c4 f   MSVCRTD:MSVCR120D.dll
 0001:0003b7ca       ___crtTerminateProcess     0043c7ca f   MSVCRTD:MSVCR120D.dll
 0001:0003b7d0       ?terminate@@YAXXZ          0043c7d0 f   MSVCRTD:MSVCR120D.dll
 0001:0003b7d6       __except_handler4_common   0043c7d6 f   MSVCRTD:MSVCR120D.dll
 0001:0003b7dc       ___crtSetUnhandledExceptionFilter 0043c7dc f   MSVCRTD:MSVCR120D.dll
 0001:0003b7e2       __invoke_watson            0043c7e2 f   MSVCRTD:MSVCR120D.dll
 0001:0003b7e8       __controlfp_s              0043c7e8 f   MSVCRTD:MSVCR120D.dll
 0001:0003b7ee       _wcscpy_s                  0043c7ee f   MSVCRTD:MSVCR120D.dll
 0001:0003b7f4       __wmakepath_s              0043c7f4 f   MSVCRTD:MSVCR120D.dll
 0001:0003b7fa       __wsplitpath_s             0043c7fa f   MSVCRTD:MSVCR120D.dll
 0001:0003b800       _GdipAlloc@4               0043c800 f   gdiplus:gdiplus.dll
 0001:0003b806       _GdipFree@4                0043c806 f   gdiplus:gdiplus.dll
 0001:0003b80c       _GdipLoadImageFromFile@8   0043c80c f   gdiplus:gdiplus.dll
 0001:0003b812       _GdipLoadImageFromFileICM@8 0043c812 f   gdiplus:gdiplus.dll
 0001:0003b818       _GdipCloneImage@8          0043c818 f   gdiplus:gdiplus.dll
 0001:0003b81e       _GdipDisposeImage@4        0043c81e f   gdiplus:gdiplus.dll
 0001:0003b824       _GdipSaveImageToFile@16    0043c824 f   gdiplus:gdiplus.dll
 0001:0003b82a       _GdipGetImageWidth@8       0043c82a f   gdiplus:gdiplus.dll
 0001:0003b830       _GdipGetImageHeight@8      0043c830 f   gdiplus:gdiplus.dll
 0001:0003b836       _GdipGetImageRawFormat@8   0043c836 f   gdiplus:gdiplus.dll
 0001:0003b83c       _GdipImageGetFrameDimensionsCount@8 0043c83c f   gdiplus:gdiplus.dll
 0001:0003b842       _GdipImageGetFrameDimensionsList@12 0043c842 f   gdiplus:gdiplus.dll
 0001:0003b848       _GdipImageGetFrameCount@12 0043c848 f   gdiplus:gdiplus.dll
 0001:0003b84e       _GdipImageSelectActiveFrame@12 0043c84e f   gdiplus:gdiplus.dll
 0001:0003b854       _GdipGetPropertyItemSize@12 0043c854 f   gdiplus:gdiplus.dll
 0001:0003b85a       _GdipGetPropertyItem@16    0043c85a f   gdiplus:gdiplus.dll
 0001:0003b860       _GdipCreateFromHDC@8       0043c860 f   gdiplus:gdiplus.dll
 0001:0003b866       _GdipDeleteGraphics@4      0043c866 f   gdiplus:gdiplus.dll
 0001:0003b86c       _GdipDrawImageI@16         0043c86c f   gdiplus:gdiplus.dll
 0001:0003b872       _GdipDrawImageRectI@24     0043c872 f   gdiplus:gdiplus.dll
 0001:0003b878       _GdipGetImageEncodersSize@8 0043c878 f   gdiplus:gdiplus.dll
 0001:0003b87e       _GdipGetImageEncoders@12   0043c87e f   gdiplus:gdiplus.dll
 0001:0003b884       _GdiplusStartup@12         0043c884 f   gdiplus:gdiplus.dll
 0001:0003b88a       _GdiplusShutdown@4         0043c88a f   gdiplus:gdiplus.dll
 0001:0003b890       _EncodePointer@4           0043c890 f   kernel32:KERNEL32.dll
 0001:0003b896       _DecodePointer@4           0043c896 f   kernel32:KERNEL32.dll
 0001:0003b89c       _IsDebuggerPresent@0       0043c89c f   kernel32:KERNEL32.dll
 0001:0003b8a2       _RaiseException@16         0043c8a2 f   kernel32:KERNEL32.dll
 0001:0003b8a8       _GetLastError@0            0043c8a8 f   kernel32:KERNEL32.dll
 0001:0003b8ae       _LoadLibraryExW@12         0043c8ae f   kernel32:KERNEL32.dll
 0001:0003b8b4       _IsProcessorFeaturePresent@4 0043c8b4 f   kernel32:KERNEL32.dll
 0001:0003b8ba       _QueryPerformanceCounter@4 0043c8ba f   kernel32:KERNEL32.dll
 0001:0003b8c0       _GetCurrentProcessId@0     0043c8c0 f   kernel32:KERNEL32.dll
 0001:0003b8c6       _GetCurrentThreadId@0      0043c8c6 f   kernel32:KERNEL32.dll
 0001:0003b8cc       _GetSystemTimeAsFileTime@4 0043c8cc f   kernel32:KERNEL32.dll
 0001:0003b8d2       _HeapAlloc@12              0043c8d2 f   kernel32:KERNEL32.dll
 0001:0003b8d8       _HeapFree@12               0043c8d8 f   kernel32:KERNEL32.dll
 0001:0003b8de       _GetProcessHeap@0          0043c8de f   kernel32:KERNEL32.dll
 0001:0003b8e4       _VirtualQuery@12           0043c8e4 f   kernel32:KERNEL32.dll
 0001:0003b8ea       _GetModuleHandleW@4        0043c8ea f   kernel32:KERNEL32.dll
 0002:00000000       ___xc_a                    00444000     MSVCRTD:cinitexe.obj
 0002:00000344       ___xc_z                    00444344     MSVCRTD:cinitexe.obj
 0002:00000448       ___xi_a                    00444448     MSVCRTD:cinitexe.obj
 0002:00000858       ___xi_z                    00444858     MSVCRTD:cinitexe.obj
 0002:0000099c       ??_7CButtonExUI@DuiLib@@6B@ 0044499c     ButtonExUI.obj
 0002:00000b04       ??_C@_1BG@DIEENPFE@?$AAB?$AAu?$AAt?$AAt?$AAo?$AAn?$AAE?$AAx?$AAU?$AAI?$AA?$AA@ 00444b04     ButtonExUI.obj
 0002:00000b20       ??_C@_1BC@ECJODNFD@?$AAB?$AAu?$AAt?$AAt?$AAo?$AAn?$AAE?$AAx?$AA?$AA@ 00444b20     ButtonExUI.obj
 0002:00000b38       ??_C@_1BE@EOJIBNBC@?$AAi?$AAc?$AAo?$AAn?$AAi?$AAm?$AAa?$AAg?$AAe?$AA?$AA@ 00444b38     ButtonExUI.obj
 0002:00000b50       __GUID_2933bf83_7b36_11d2_b20e_00c04f983e60 00444b50     FaceCtrl.obj
 0002:00000b64       __GUID_2933bf80_7b36_11d2_b20e_00c04f983e60 00444b64     FaceCtrl.obj
 0002:00000b78       __GUID_2933bf82_7b36_11d2_b20e_00c04f983e60 00444b78     FaceCtrl.obj
 0002:00000b8c       __GUID_2933bf8c_7b36_11d2_b20e_00c04f983e60 00444b8c     FaceCtrl.obj
 0002:00000ba0       __GUID_3efaa426_272f_11d2_836f_0000f87a7782 00444ba0     FaceCtrl.obj
 0002:00000bb4       __GUID_2933bf89_7b36_11d2_b20e_00c04f983e60 00444bb4     FaceCtrl.obj
 0002:00000bc8       __GUID_2933bf87_7b36_11d2_b20e_00c04f983e60 00444bc8     FaceCtrl.obj
 0002:00000bdc       __GUID_310afa62_0575_11d2_9ca9_0060b0ec3d39 00444bdc     FaceCtrl.obj
 0002:00000bf0       __GUID_f52e2b61_18a1_11d1_b105_00805f49916b 00444bf0     FaceCtrl.obj
 0002:00000c04       __GUID_2b8de2fe_8d2d_11d1_b2fc_00c04fd915a9 00444c04     FaceCtrl.obj
 0002:00000c18       __GUID_3f7f31ac_e15f_11d0_9c25_00c04fc99c8e 00444c18     FaceCtrl.obj
 0002:00000c2c       __GUID_2b8de2ff_8d2d_11d1_b2fc_00c04fd915a9 00444c2c     FaceCtrl.obj
 0002:00000c40       __GUID_65725580_9b5d_11d0_9bfe_00c04fc99c8e 00444c40     FaceCtrl.obj
 0002:00000c54       __GUID_948c5ad3_c58d_11d0_9c0b_00c04fc99c8e 00444c54     FaceCtrl.obj
 0002:00000c68       __GUID_ed8c108d_4349_11d2_91a4_00c04f7969e8 00444c68     FaceCtrl.obj
 0002:00000c7c       __GUID_3efaa425_272f_11d2_836f_0000f87a7782 00444c7c     FaceCtrl.obj
 0002:00000c90       __GUID_99bca7bd_e8c4_4d5f_a0cf_6d907901ff07 00444c90     FaceCtrl.obj
 0002:00000ca4       __GUID_9b7e472a_0de4_4640_bff3_84d38a051c31 00444ca4     FaceCtrl.obj
 0002:00000cb8       __GUID_f078abe1_45d2_4832_91ea_4466ce2f25c9 00444cb8     FaceCtrl.obj
 0002:00000ccc       __GUID_1545cdfa_9e4e_4497_a8a4_2bf7d0112c44 00444ccc     FaceCtrl.obj
 0002:00000ce0       __GUID_e15c1baf_afb3_4d60_8c36_19a8c45defed 00444ce0     FaceCtrl.obj
 0002:00000cf4       __GUID_a60511c4_ccf5_479e_98a3_dc8dc545b7d0 00444cf4     FaceCtrl.obj
 0002:00000d08       __GUID_a4f96ed0_f829_476e_81c0_cdc7bd2a0802 00444d08     FaceCtrl.obj
 0002:00000d1c       __GUID_70409222_ca09_4475_acb8_40312fe8d145 00444d1c     FaceCtrl.obj
 0002:00000d30       __GUID_7f85d5f5_47a8_4497_bda5_84ba04819ea6 00444d30     FaceCtrl.obj
 0002:00000d44       __GUID_862629ac_771a_47b2_8337_4e6843c1be90 00444d44     FaceCtrl.obj
 0002:00000d58       __GUID_0c05d096_f45b_4aca_ad1a_aa0bc25518dc 00444d58     FaceCtrl.obj
 0002:00000d6c       __GUID_796e7ac5_5aa2_4eff_acad_3faaf01a3288 00444d6c     FaceCtrl.obj
 0002:00000d80       __GUID_10dc0586_132b_4cac_8bb3_db00ac8b7ee0 00444d80     FaceCtrl.obj
 0002:00000d94       __GUID_2ed7290a_4dd5_4b46_bb26_4e4155e77faa 00444d94     FaceCtrl.obj
 0002:00000da8       __GUID_24fb3297_302d_4620_ba39_3a732d850558 00444da8     FaceCtrl.obj
 0002:00000dbc       __GUID_d963d3fe_173c_4862_9095_b92f66995f52 00444dbc     FaceCtrl.obj
 0002:00000dd0       __GUID_8c033caa_6cd6_4f73_b728_4531af74945f 00444dd0     FaceCtrl.obj
 0002:00000de4       __GUID_1299eb1b_5b88_433e_82de_82ca75ad4e04 00444de4     FaceCtrl.obj
 0002:00000df8       __GUID_032aac35_8c0e_4d9d_979f_e3b702935576 00444df8     FaceCtrl.obj
 0002:00000e0c       __GUID_e8917260_7579_4be1_b5dd_7afbfa6f077b 00444e0c     FaceCtrl.obj
 0002:00000e20       __GUID_4d7ff4ba_1565_4ea8_94e1_6e724a46f98d 00444e20     FaceCtrl.obj
 0002:00000e34       __GUID_f10d27cc_3ec0_415c_8ed8_77ab1c5e7262 00444e34     FaceCtrl.obj
 0002:00000e48       __GUID_808f4e35_8d5a_4fbe_8466_33a41279ed30 00444e48     FaceCtrl.obj
 0002:00000e5c       __GUID_50ea08b1_dd1b_4664_9a50_c2f40f4bd79a 00444e5c     FaceCtrl.obj
 0002:00000e70       __GUID_c90352f7_643c_4fbc_bb23_e996eb2d51fd 00444e70     FaceCtrl.obj
 0002:00000e84       __GUID_00000000_0000_0000_0000_000000000000 00444e84     FaceCtrl.obj
 0002:00000e98       __GUID_2e9196bf_13ba_4dd4_91ca_6c571f281495 00444e98     FaceCtrl.obj
 0002:00000eac       __GUID_2e01311b_c322_4b0a_bd77_b90cfdc8dce7 00444eac     FaceCtrl.obj
 0002:00000ec0       __GUID_c90352f4_643c_4fbc_bb23_e996eb2d51fd 00444ec0     FaceCtrl.obj
 0002:00000ed4       __GUID_373984c8_b845_449b_91e7_45ac83036ade 00444ed4     FaceCtrl.obj
 0002:00000ee8       __GUID_2933bf95_7b36_11d2_b20e_00c04f983e60 00444ee8     FaceCtrl.obj
 0002:00000efc       __GUID_2933bf96_7b36_11d2_b20e_00c04f983e60 00444efc     FaceCtrl.obj
 0002:00000f10       __GUID_aa634fc7_5888_44a7_a257_3a47150d3a0e 00444f10     FaceCtrl.obj
 0002:00000f24       __GUID_c90352f5_643c_4fbc_bb23_e996eb2d51fd 00444f24     FaceCtrl.obj
 0002:00000f38       __GUID_c90352f6_643c_4fbc_bb23_e996eb2d51fd 00444f38     FaceCtrl.obj
 0002:00000f4c       __GUID_3efaa428_272f_11d2_836f_0000f87a7782 00444f4c     FaceCtrl.obj
 0002:00000f60       __GUID_3efaa429_272f_11d2_836f_0000f87a7782 00444f60     FaceCtrl.obj
 0002:00000f74       __GUID_2933bf93_7b36_11d2_b20e_00c04f983e60 00444f74     FaceCtrl.obj
 0002:00000f88       __GUID_2933bf92_7b36_11d2_b20e_00c04f983e60 00444f88     FaceCtrl.obj
 0002:00000f9c       __GUID_fa4bb38c_faf9_4cca_9302_d1dd0fe520db 00444f9c     FaceCtrl.obj
 0002:00000fb0       __GUID_50ea08b3_dd1b_4664_9a50_c2f40f4bd79a 00444fb0     FaceCtrl.obj
 0002:00000fc4       __GUID_50ea08b5_dd1b_4664_9a50_c2f40f4bd79a 00444fc4     FaceCtrl.obj
 0002:00000fd8       __GUID_50ea08b2_dd1b_4664_9a50_c2f40f4bd79a 00444fd8     FaceCtrl.obj
 0002:00000fec       __GUID_50ea08b4_dd1b_4664_9a50_c2f40f4bd79a 00444fec     FaceCtrl.obj
 0002:00001000       __GUID_50ea08b8_dd1b_4664_9a50_c2f40f4bd79a 00445000     FaceCtrl.obj
 0002:00001014       __GUID_50ea08bc_dd1b_4664_9a50_c2f40f4bd79a 00445014     FaceCtrl.obj
 0002:00001028       __GUID_50ea08bb_dd1b_4664_9a50_c2f40f4bd79a 00445028     FaceCtrl.obj
 0002:0000103c       __GUID_50ea08b9_dd1b_4664_9a50_c2f40f4bd79a 0044503c     FaceCtrl.obj
 0002:00001050       __GUID_50ea08b7_dd1b_4664_9a50_c2f40f4bd79a 00445050     FaceCtrl.obj
 0002:00001064       __GUID_50ea08b0_dd1b_4664_9a50_c2f40f4bd79a 00445064     FaceCtrl.obj
 0002:00001078       __GUID_50ea08b6_dd1b_4664_9a50_c2f40f4bd79a 00445078     FaceCtrl.obj
 0002:0000108c       __GUID_50ea08ba_dd1b_4664_9a50_c2f40f4bd79a 0044508c     FaceCtrl.obj
 0002:000010a0       __GUID_50ea08bd_dd1b_4664_9a50_c2f40f4bd79a 004450a0     FaceCtrl.obj
 0002:000010b4       __GUID_50ea08be_dd1b_4664_9a50_c2f40f4bd79a 004450b4     FaceCtrl.obj
 0002:000010c8       __GUID_d4d4a0fc_3b73_11d1_b2b4_00c04fb92596 004450c8     FaceCtrl.obj
 0002:000010dc       __GUID_2933bf85_7b36_11d2_b20e_00c04f983e60 004450dc     FaceCtrl.obj
 0002:000010f0       __GUID_2933bf84_7b36_11d2_b20e_00c04f983e60 004450f0     FaceCtrl.obj
 0002:00001104       __GUID_2933bf81_7b36_11d2_b20e_00c04f983e60 00445104     FaceCtrl.obj
 0002:00001118       __GUID_2933bf8b_7b36_11d2_b20e_00c04f983e60 00445118     FaceCtrl.obj
 0002:0000112c       __GUID_2933bf86_7b36_11d2_b20e_00c04f983e60 0044512c     FaceCtrl.obj
 0002:00001140       __GUID_2933bf8d_7b36_11d2_b20e_00c04f983e60 00445140     FaceCtrl.obj
 0002:00001154       __GUID_2933bf8f_7b36_11d2_b20e_00c04f983e60 00445154     FaceCtrl.obj
 0002:00001168       ??_C@_0CE@OFMIGAMM@Standard?5C?$CL?$CL?5Libraries?5Out?5of?5Ra@ 00445168     FaceCtrl.obj
 0002:00001198       ??_C@_1FG@IBPIFFN@?$AA?$CC?$AAS?$AAt?$AAa?$AAn?$AAd?$AAa?$AAr?$AAd?$AA?5?$AAC?$AA?$CL?$AA?$CL?$AA?5?$AAL?$AAi?$AAb?$AAr?$AAa?$AAr?$AAi?$AAe?$AAs?$AA?5?$AAO?$AAu?$AAt?$AA?5?$AAo?$AAf?$AA?5?$AAR@ 00445198     FaceCtrl.obj
 0002:00001200       ??_C@_15GANGMFKL@?$AA?$CF?$AAs?$AA?$AA@ 00445200     FaceCtrl.obj
 0002:00001208       ??_C@_1BO@MEPPHOO@?$AA?$CC?$AAo?$AAu?$AAt?$AA?5?$AAo?$AAf?$AA?5?$AAr?$AAa?$AAn?$AAg?$AAe?$AA?$CC?$AA?$AA@ 00445208     FaceCtrl.obj
 0002:0000122c       ??_C@_1CK@EOPGIILJ@?$AAi?$AAn?$AAv?$AAa?$AAl?$AAi?$AAd?$AA?5?$AAn?$AAu?$AAl?$AAl?$AA?5?$AAp?$AAo?$AAi?$AAn?$AAt?$AAe?$AAr?$AA?$AA@ 0044522c     FaceCtrl.obj
 0002:00001260       ??_C@_1CO@DGLIKNHI@?$AAi?$AAn?$AAv?$AAa?$AAl?$AAi?$AAd?$AA?5?$AAi?$AAt?$AAe?$AAr?$AAa?$AAt?$AAo?$AAr?$AA?5?$AAr?$AAa?$AAn?$AAg?$AAe?$AA?$AA@ 00445260     FaceCtrl.obj
 0002:0000129c       ??_7CFaceCtrl@DuiLib@@6B@  0044529c     FaceCtrl.obj
 0002:00001404       ??_C@_1BC@JBPMJGBD@?$AAF?$AAa?$AAc?$AAe?$AAC?$AAt?$AAr?$AAl?$AA?$AA@ 00445404     FaceCtrl.obj
 0002:0000141c       ??_C@_11LOCGONAA@?$AA?$AA@ 0044541c     FaceCtrl.obj
 0002:00001420       ??_C@_1M@LNNONFPA@?$AAc?$AAl?$AAi?$AAc?$AAk?$AA?$AA@ 00445420     FaceCtrl.obj
 0002:00001430       ??_C@_1IM@PEGKCIJF@?$AAd?$AA?3?$AA?2?$AAp?$AAr?$AAo?$AAg?$AAr?$AAa?$AAm?$AA?5?$AAf?$AAi?$AAl?$AAe?$AAs?$AA?5?$AA?$CI?$AAx?$AA8?$AA6?$AA?$CJ?$AA?2?$AAm?$AAi?$AAc?$AAr?$AAo?$AAs?$AAo?$AAf?$AAt@ 00445430     FaceCtrl.obj
 0002:000014d8       ??_C@_1DM@LHGCHCBA@?$AAv?$AAe?$AAc?$AAt?$AAo?$AAr?$AA?5?$AAs?$AAu?$AAb?$AAs?$AAc?$AAr?$AAi?$AAp?$AAt?$AA?5?$AAo?$AAu?$AAt?$AA?5?$AAo?$AAf?$AA?5?$AAr?$AAa?$AAn?$AAg?$AAe?$AA?$AA@ 004454d8     FaceCtrl.obj
 0002:00001520       ??_C@_1KK@EJOFPHDD@?$AAs?$AAt?$AAd?$AA?3?$AA?3?$AAv?$AAe?$AAc?$AAt?$AAo?$AAr?$AA?$DM?$AAc?$AAl?$AAa?$AAs?$AAs?$AA?5?$AAC?$AAF?$AAa?$AAc?$AAe?$AAI?$AAn?$AAf?$AAo?$AA?5?$AA?$CK?$AA?0?$AAc?$AAl@ 00445520     FaceCtrl.obj
 0002:000015f0       ??_C@_1KK@IIKNONMG@?$AAs?$AAt?$AAd?$AA?3?$AA?3?$AAv?$AAe?$AAc?$AAt?$AAo?$AAr?$AA?$DM?$AAc?$AAl?$AAa?$AAs?$AAs?$AA?5?$AAC?$AAG?$AAi?$AAf?$AAI?$AAm?$AAa?$AAg?$AAe?$AA?5?$AA?$CK?$AA?0?$AAc?$AAl@ 004455f0     FaceCtrl.obj
 0002:000016bc       ??_C@_0BD@OLBABOEK@vector?$DMT?$DO?5too?5long?$AA@ 004456bc     FaceCtrl.obj
 0002:000016d8       ??_C@_1IO@IOJCKIG@?$AAd?$AA?3?$AA?2?$AAp?$AAr?$AAo?$AAg?$AAr?$AAa?$AAm?$AA?5?$AAf?$AAi?$AAl?$AAe?$AAs?$AA?5?$AA?$CI?$AAx?$AA8?$AA6?$AA?$CJ?$AA?2?$AAm?$AAi?$AAc?$AAr?$AAo?$AAs?$AAo?$AAf?$AAt@ 004456d8     FaceCtrl.obj
 0002:00001788       ??_C@_1JA@LLKCNDPA@?$AAd?$AA?3?$AA?2?$AAp?$AAr?$AAo?$AAg?$AAr?$AAa?$AAm?$AA?5?$AAf?$AAi?$AAl?$AAe?$AAs?$AA?5?$AA?$CI?$AAx?$AA8?$AA6?$AA?$CJ?$AA?2?$AAm?$AAi?$AAc?$AAr?$AAo?$AAs?$AAo?$AAf?$AAt@ 00445788     FaceList.obj
 0002:00001834       ??_C@_1DC@POOIKBAO@?$AAI?$AAT?$AAE?$AAR?$AAA?$AAT?$AAO?$AAR?$AA?5?$AAL?$AAI?$AAS?$AAT?$AA?5?$AAC?$AAO?$AAR?$AAR?$AAU?$AAP?$AAT?$AAE?$AAD?$AA?$CB?$AA?$AA@ 00445834     FaceList.obj
 0002:00001870       ?npos@?$basic_string@_WU?$char_traits@_W@std@@V?$allocator@_W@2@@std@@2IB 00445870     FaceList.obj
 0002:00001878       ??_C@_1IO@OGGFNDFH@?$AAd?$AA?3?$AA?2?$AAp?$AAr?$AAo?$AAg?$AAr?$AAa?$AAm?$AA?5?$AAf?$AAi?$AAl?$AAe?$AAs?$AA?5?$AA?$CI?$AAx?$AA8?$AA6?$AA?$CJ?$AA?2?$AAm?$AAi?$AAc?$AAr?$AAo?$AAs?$AAo?$AAf?$AAt@ 00445878     FaceList.obj
 0002:00001924       ??_C@_0BA@JFNIOLAK@string?5too?5long?$AA@ 00445924     FaceList.obj
 0002:00001938       ??_C@_0BI@CFPLBAOH@invalid?5string?5position?$AA@ 00445938     FaceList.obj
 0002:00001954       ??_C@_1DM@KDEKGMPF@?$AAs?$AAt?$AAr?$AAi?$AAn?$AAg?$AA?5?$AAi?$AAt?$AAe?$AAr?$AAa?$AAt?$AAo?$AAr?$AAs?$AA?5?$AAi?$AAn?$AAc?$AAo?$AAm?$AAp?$AAa?$AAt?$AAi?$AAb?$AAl?$AAe?$AA?$AA@ 00445954     FaceList.obj
 0002:0000199c       ??_C@_0CI@FNPHFCCM@Standard?5C?$CL?$CL?5Libraries?5Invalid?5A@ 0044599c     FaceList.obj
 0002:000019d0       ??_C@_1FO@GJIHNDLM@?$AA?$CC?$AAS?$AAt?$AAa?$AAn?$AAd?$AAa?$AAr?$AAd?$AA?5?$AAC?$AA?$CL?$AA?$CL?$AA?5?$AAL?$AAi?$AAb?$AAr?$AAa?$AAr?$AAi?$AAe?$AAs?$AA?5?$AAI?$AAn?$AAv?$AAa?$AAl?$AAi?$AAd?$AA?5@ 004459d0     FaceList.obj
 0002:00001a40       ??_C@_1CG@JNLFBNGN@?$AA?$CC?$AAi?$AAn?$AAv?$AAa?$AAl?$AAi?$AAd?$AA?5?$AAa?$AAr?$AAg?$AAu?$AAm?$AAe?$AAn?$AAt?$AA?$CC?$AA?$AA@ 00445a40     FaceList.obj
 0002:00001a70       ??_C@_1MG@CLNEOJNJ@?$AAs?$AAt?$AAd?$AA?3?$AA?3?$AA_?$AAS?$AAt?$AAr?$AAi?$AAn?$AAg?$AA_?$AAc?$AAo?$AAn?$AAs?$AAt?$AA_?$AAi?$AAt?$AAe?$AAr?$AAa?$AAt?$AAo?$AAr?$AA?$DM?$AAc?$AAl?$AAa?$AAs@ 00445a70     FaceList.obj
 0002:00001b60       ??_C@_1BI@IPDBPAEM@?$AA?1?$AAf?$AAa?$AAc?$AAe?$AAc?$AAo?$AAn?$AAf?$AAi?$AAg?$AA?$AA@ 00445b60     FaceList.obj
 0002:00001b7c       ??_C@_1BG@DPEGGNAD@?$AAi?$AAt?$AAe?$AAm?$AA_?$AAw?$AAi?$AAd?$AAt?$AAh?$AA?$AA@ 00445b7c     FaceList.obj
 0002:00001b98       ??_C@_1BI@MOJFDOMI@?$AAi?$AAt?$AAe?$AAm?$AA_?$AAh?$AAe?$AAi?$AAg?$AAh?$AAt?$AA?$AA@ 00445b98     FaceList.obj
 0002:00001bb4       ??_C@_1BG@GPPIHPNA@?$AAz?$AAo?$AAo?$AAm?$AA_?$AAw?$AAi?$AAd?$AAt?$AAh?$AA?$AA@ 00445bb4     FaceList.obj
 0002:00001bd0       ??_C@_1BI@JHDJIJOC@?$AAz?$AAo?$AAo?$AAm?$AA_?$AAh?$AAe?$AAi?$AAg?$AAh?$AAt?$AA?$AA@ 00445bd0     FaceList.obj
 0002:00001bec       ??_C@_17HLOCJDNB@?$AAr?$AAo?$AAw?$AA?$AA@ 00445bec     FaceList.obj
 0002:00001bf8       ??_C@_17EMOLHCPK@?$AAc?$AAo?$AAl?$AA?$AA@ 00445bf8     FaceList.obj
 0002:00001c04       ??_C@_19FOFFDJFO@?$AAf?$AAa?$AAc?$AAe?$AA?$AA@ 00445c04     FaceList.obj
 0002:00001c10       ??_C@_15NFICGAJK@?$AAi?$AAd?$AA?$AA@ 00445c10     FaceList.obj
 0002:00001c18       ??_C@_17PGADEBPC@?$AAt?$AAi?$AAp?$AA?$AA@ 00445c18     FaceList.obj
 0002:00001c24       ??_C@_19HMOGJADO@?$AAf?$AAi?$AAl?$AAe?$AA?$AA@ 00445c24     FaceList.obj
 0002:00001c30       ??_C@_1EG@CNCHLAOB@?$AAs?$AAt?$AAr?$AAi?$AAn?$AAg?$AA?5?$AAi?$AAt?$AAe?$AAr?$AAa?$AAt?$AAo?$AAr?$AA?5?$AAn?$AAo?$AAt?$AA?5?$AAd?$AAe?$AAr?$AAe?$AAf?$AAe?$AAr?$AAe?$AAn?$AAc?$AAa?$AAb@ 00445c30     FaceList.obj
 0002:00001c88       ??_C@_1MM@BFHGHMKD@?$AAs?$AAt?$AAd?$AA?3?$AA?3?$AA_?$AAS?$AAt?$AAr?$AAi?$AAn?$AAg?$AA_?$AAc?$AAo?$AAn?$AAs?$AAt?$AA_?$AAi?$AAt?$AAe?$AAr?$AAa?$AAt?$AAo?$AAr?$AA?$DM?$AAc?$AAl?$AAa?$AAs@ 00445c88     FaceList.obj
 0002:00001d80       ??_7CFaceSelDlg@@6BCWindowWnd@DuiLib@@@ 00445d80     FaceSelDlg.obj
 0002:00001e0c       ??_7CFaceSelDlg@@6BINotifyUI@DuiLib@@@ 00445e0c     FaceSelDlg.obj
 0002:00001e18       ??_7CFaceSelDlg@@6BIMessageFilterUI@DuiLib@@@ 00445e18     FaceSelDlg.obj
 0002:00001e24       ??_7CFaceSelDlg@@6BIDialogBuilderCallback@DuiLib@@@ 00445e24     FaceSelDlg.obj
 0002:00001e2c       ??_C@_1BG@FBMMHKLN@?$AAD?$AAU?$AAI?$AA_?$AAW?$AAI?$AAN?$AAD?$AAO?$AAW?$AA?$AA@ 00445e2c     FaceSelDlg.obj
 0002:00001e48       ??_C@_1BE@DABEHJNL@?$AAF?$AAa?$AAc?$AAe?$AAC?$AAt?$AAr?$AAl?$AA1?$AA?$AA@ 00445e48     FaceSelDlg.obj
 0002:00001e60       ??_C@_1BO@PDBHDIAK@?$AAF?$AAa?$AAc?$AAe?$AAS?$AAe?$AAl?$AAD?$AAl?$AAg?$AA?4?$AAx?$AAm?$AAl?$AA?$AA@ 00445e60     FaceSelDlg.obj
 0002:00001e84       ??_C@_1M@ICHIPALD@?$AAs?$AAk?$AAi?$AAn?$AA?2?$AA?$AA@ 00445e84     FaceSelDlg.obj
 0002:00001e94       ??_C@_13FPGAJAPJ@?$AA?2?$AA?$AA@ 00445e94     FileDialogEx.obj
 0002:00001e9c       ??_7Image@Gdiplus@@6B@     00445e9c     GifImage.obj
 0002:00001ea8       __GUID_89fc1386_91e5_415f_ad8f_04415c15f8f5 00445ea8     MainWindow.obj
 0002:00001ebc       ??_C@_15EFLNJKHH@?$AA?$CF?$AAu?$AA?$AA@ 00445ebc     MainWindow.obj
 0002:00001ec8       ??_7CMainWindow@@6BCWindowWnd@DuiLib@@@ 00445ec8     MainWindow.obj
 0002:00001f54       ??_7CMainWindow@@6BINotifyUI@DuiLib@@@ 00445f54     MainWindow.obj
 0002:00001f60       ??_7CMainWindow@@6BIMessageFilterUI@DuiLib@@@ 00445f60     MainWindow.obj
 0002:00001f6c       ??_7CMainWindow@@6BIDialogBuilderCallback@DuiLib@@@ 00445f6c     MainWindow.obj
 0002:00001f74       ??_C@_15NHPHCOCM@?$FL?$ILOS?$AA?$AA@ 00445f74     MainWindow.obj
 0002:00001f7c       ??_C@_1CG@FABBKAMN@?$AAM?$AAe?$AAn?$AAu?$AA_?$AAZ?$AAo?$AAo?$AAm?$AAR?$AAa?$AAt?$AAi?$AAo?$AA_?$AA1?$AA0?$AA0?$AA?$AA@ 00445f7c     MainWindow.obj
 0002:00001fac       ??_C@_1CI@JMFPLFAH@?$AAF?$AAa?$AAc?$AAe?$AA?2?$AAF?$AAa?$AAc?$AAe?$AAC?$AAo?$AAn?$AAf?$AAi?$AAg?$AA?4?$AAx?$AAm?$AAl?$AA?$AA@ 00445fac     MainWindow.obj
 0002:00001fdc       ??_C@_1BE@MMHLJICP@?$AAb?$AAt?$AAn?$AAM?$AAi?$AAn?$AAS?$AAy?$AAs?$AA?$AA@ 00445fdc     MainWindow.obj
 0002:00001ff4       ??_C@_1BE@OAMHBPHO@?$AAb?$AAt?$AAn?$AAM?$AAa?$AAx?$AAS?$AAy?$AAs?$AA?$AA@ 00445ff4     MainWindow.obj
 0002:0000200c       ??_C@_1BM@JMPBJMLH@?$AAb?$AAt?$AAn?$AAR?$AAe?$AAs?$AAt?$AAo?$AAr?$AAe?$AAS?$AAy?$AAs?$AA?$AA@ 0044600c     MainWindow.obj
 0002:00002030       ??_C@_1BI@CCEBNNNM@?$AAb?$AAt?$AAn?$AAC?$AAl?$AAo?$AAs?$AAe?$AAS?$AAy?$AAs?$AA?$AA@ 00446030     MainWindow.obj
 0002:0000204c       ??_C@_1BA@NDMJADBH@?$AAb?$AAt?$AAn?$AAF?$AAo?$AAn?$AAt?$AA?$AA@ 0044604c     MainWindow.obj
 0002:00002060       ??_C@_1BA@JCHIDCAB@?$AAb?$AAt?$AAn?$AAF?$AAa?$AAc?$AAe?$AA?$AA@ 00446060     MainWindow.obj
 0002:00002074       ??_C@_1BC@LKHBCMAB@?$AAb?$AAt?$AAn?$AAI?$AAm?$AAa?$AAg?$AAe?$AA?$AA@ 00446074     MainWindow.obj
 0002:0000208c       ??_C@_1BI@KEMAKKHJ@?$AAc?$AAb?$AAo?$AAF?$AAo?$AAn?$AAt?$AAN?$AAa?$AAm?$AAe?$AA?$AA@ 0044608c     MainWindow.obj
 0002:000020a8       ??_C@_1BI@LLKGIJLH@?$AAc?$AAb?$AAo?$AAF?$AAo?$AAn?$AAt?$AAS?$AAi?$AAz?$AAe?$AA?$AA@ 004460a8     MainWindow.obj
 0002:000020c4       ??_C@_1BA@MHPDFFPJ@?$AAb?$AAt?$AAn?$AAB?$AAo?$AAl?$AAd?$AA?$AA@ 004460c4     MainWindow.obj
 0002:000020d8       ??_C@_1BE@LJEJLEHO@?$AAb?$AAt?$AAn?$AAI?$AAt?$AAa?$AAl?$AAi?$AAc?$AA?$AA@ 004460d8     MainWindow.obj
 0002:000020f0       ??_C@_1BK@BBFLPOGG@?$AAb?$AAt?$AAn?$AAU?$AAn?$AAd?$AAe?$AAr?$AAL?$AAi?$AAn?$AAe?$AA?$AA@ 004460f0     MainWindow.obj
 0002:00002110       ??_C@_1BC@OOCLOMMH@?$AAb?$AAt?$AAn?$AAC?$AAo?$AAl?$AAo?$AAr?$AA?$AA@ 00446110     MainWindow.obj
 0002:00002128       ??_C@_1BC@DCEJPNOB@?$AAb?$AAt?$AAn?$AAC?$AAl?$AAo?$AAs?$AAe?$AA?$AA@ 00446128     MainWindow.obj
 0002:00002140       ??_C@_1BA@NDJHACOM@?$AAb?$AAt?$AAn?$AAS?$AAe?$AAn?$AAd?$AA?$AA@ 00446140     MainWindow.obj
 0002:00002154       ??_C@_1BC@CCBCGBMO@?$AAr?$AAi?$AAc?$AAh?$AAS?$AAe?$AAn?$AAd?$AA?$AA@ 00446154     MainWindow.obj
 0002:0000216c       ??_C@_1BC@ILFOIGDK@?$AAr?$AAi?$AAc?$AAh?$AAR?$AAe?$AAc?$AAv?$AA?$AA@ 0044616c     MainWindow.obj
 0002:00002184       ??_C@_1BO@KILFIGGE@?$AAM?$AAa?$AAi?$AAn?$AAW?$AAi?$AAn?$AAd?$AAo?$AAw?$AA?4?$AAx?$AAm?$AAl?$AA?$AA@ 00446184     MainWindow.obj
 0002:000021a8       ??_C@_1BC@BMIFJDKP@?$AAm?$AAe?$AAn?$AAu?$AA_?$AAm?$AAs?$AAg?$AA?$AA@ 004461a8     MainWindow.obj
 0002:000021c0       ??_C@_1BG@BGGLOGEL@?$AAi?$AAt?$AAe?$AAm?$AAs?$AAe?$AAl?$AAe?$AAc?$AAt?$AA?$AA@ 004461c0     MainWindow.obj
 0002:000021dc       ??_C@_1M@FMHFOPDF@?$AAt?$AAi?$AAm?$AAe?$AAr?$AA?$AA@ 004461dc     MainWindow.obj
 0002:000021ec       ??_C@_1BC@DJMKEAJH@?$AAM?$AAe?$AAn?$AAu?$AA_?$AAC?$AAu?$AAt?$AA?$AA@ 004461ec     MainWindow.obj
 0002:00002204       ??_C@_1BE@CIABOEGE@?$AAM?$AAe?$AAn?$AAu?$AA_?$AAC?$AAo?$AAp?$AAy?$AA?$AA@ 00446204     MainWindow.obj
 0002:0000221c       ??_C@_1BG@PNFALMHA@?$AAM?$AAe?$AAn?$AAu?$AA_?$AAP?$AAa?$AAs?$AAt?$AAe?$AA?$AA@ 0044621c     MainWindow.obj
 0002:00002238       ??_C@_1BI@NPPIPLKK@?$AAM?$AAe?$AAn?$AAu?$AA_?$AAS?$AAe?$AAl?$AAA?$AAl?$AAl?$AA?$AA@ 00446238     MainWindow.obj
 0002:00002254       ??_C@_1BG@FHCJMMGO@?$AAM?$AAe?$AAn?$AAu?$AA_?$AAC?$AAl?$AAe?$AAa?$AAr?$AA?$AA@ 00446254     MainWindow.obj
 0002:00002270       ??_C@_1CG@BIPBKOKJ@?$AAM?$AAe?$AAn?$AAu?$AA_?$AAZ?$AAo?$AAo?$AAm?$AAR?$AAa?$AAt?$AAi?$AAo?$AA_?$AA4?$AA0?$AA0?$AA?$AA@ 00446270     MainWindow.obj
 0002:000022a0       ??_C@_1CG@NOJOKHCO@?$AAM?$AAe?$AAn?$AAu?$AA_?$AAZ?$AAo?$AAo?$AAm?$AAR?$AAa?$AAt?$AAi?$AAo?$AA_?$AA2?$AA0?$AA0?$AA?$AA@ 004462a0     MainWindow.obj
 0002:000022d0       ??_C@_1CG@NMDBHO@?$AAM?$AAe?$AAn?$AAu?$AA_?$AAZ?$AAo?$AAo?$AAm?$AAR?$AAa?$AAt?$AAi?$AAo?$AA_?$AA1?$AA5?$AA0?$AA?$AA@ 004462d0     MainWindow.obj
 0002:00002300       ??_C@_1CG@CKAHPBPE@?$AAM?$AAe?$AAn?$AAu?$AA_?$AAZ?$AAo?$AAo?$AAm?$AAR?$AAa?$AAt?$AAi?$AAo?$AA_?$AA1?$AA2?$AA5?$AA?$AA@ 00446300     MainWindow.obj
 0002:00002330       ??_C@_1CE@OOGMBKMA@?$AAM?$AAe?$AAn?$AAu?$AA_?$AAZ?$AAo?$AAo?$AAm?$AAR?$AAa?$AAt?$AAi?$AAo?$AA_?$AA7?$AA5?$AA?$AA@ 00446330     MainWindow.obj
 0002:0000235c       ??_C@_1CE@JEHKELPJ@?$AAM?$AAe?$AAn?$AAu?$AA_?$AAZ?$AAo?$AAo?$AAm?$AAR?$AAa?$AAt?$AAi?$AAo?$AA_?$AA5?$AA0?$AA?$AA@ 0044635c     MainWindow.obj
 0002:00002388       ??_C@_1BI@CCAGOMHJ@?$AAM?$AAe?$AAn?$AAu?$AA_?$AAS?$AAa?$AAv?$AAe?$AAA?$AAs?$AA?$AA@ 00446388     MainWindow.obj
 0002:000023a4       ??_C@_1BA@ODAFPLOH@?$AAF?$AAo?$AAn?$AAt?$AAB?$AAa?$AAr?$AA?$AA@ 004463a4     MainWindow.obj
 0002:000023b8       ??_C@_1IM@IKIEECLL@V?$POP?Oe?$IHN?v?$AA?$CI?$AA?$CK?$AA?4?$AAb?$AAm?$AAp?$AA?$DL?$AA?$CK?$AA?4?$AAj?$AAp?$AAg?$AA?$DL?$AA?$CK?$AA?4?$AAj?$AAp?$AAe?$AAg?$AA?$DL?$AA?$CK?$AA?4?$AAg?$AAi?$AAf?$AA?$DL?$AA?$CK?$AA?4@ 004463b8     MainWindow.obj
 0002:00002460       ??_C@_17FPIKAFMG@g?$CKT?$HNT?$AN?$AA?$AA@ 00446460     MainWindow.obj
 0002:0000246c       ??_C@_19KBBJNKOC@?$AA?4?$AAj?$AAp?$AAg?$AA?$AA@ 0044646c     MainWindow.obj
 0002:00002478       ??_C@_1EM@PHMPNDNK@V?$POP?Oe?$IHN?v?$AA?$CI?$AA?$CK?$AA?4?$AAj?$AAp?$AAg?$AA?$CJ?$AA?$AA?$AA?$CK?$AA?4?$AAj?$AAp?$AAg?$AA?$AAV?$POP?Oe?$IHN?v?$AA?$CI?$AA?$CK?$AA?4?$AAb?$AAm?$AAp?$AA?$CJ?$AA?$AA?$AA?$CK?$AA?4@ 00446478     MainWindow.obj
 0002:000024d4       ??_C@_19HFLOJEOK@?$AA?4?$AAp?$AAn?$AAg?$AA?$AA@ 004464d4     MainWindow.obj
 0002:000024e0       ??_C@_1CI@ICFLDCKH@V?$POP?Oe?$IHN?v?$AA?$CI?$AA?$CK?$AA?4?$AAp?$AAn?$AAg?$AA?$CJ?$AA?$AA?$AA?$CK?$AA?4?$AAp?$AAn?$AAg?$AA?$AA?$AA?$AA?$AA?$AA@ 004464e0     MainWindow.obj
 0002:00002510       ??_C@_19KGHJPLAF@?$AA?4?$AAg?$AAi?$AAf?$AA?$AA@ 00446510     MainWindow.obj
 0002:00002520       ??_C@_1HA@BLIIHPMD@V?$POP?Oe?$IHN?v?$AA?$CI?$AA?$CK?$AA?4?$AAg?$AAi?$AAf?$AA?$CJ?$AA?$AA?$AA?$CK?$AA?4?$AAg?$AAi?$AAf?$AA?$AAV?$POP?Oe?$IHN?v?$AA?$CI?$AA?$CK?$AA?4?$AAj?$AAp?$AAg?$AA?$CJ?$AA?$AA?$AA?$CK?$AA?4@ 00446520     MainWindow.obj
 0002:000025a8       ??_C@_19NJNNJECA@O?$NN?$FLXV?$POrG?$AA?$AA@ 004465a8     MainWindow.obj
 0002:000025b4       ??_C@_13JOFGPIOO@?$AA?4?$AA?$AA@ 004465b4     MainWindow.obj
 0002:000025b8       ??_C@_17CAPCPOIM@?$AAx?$AAm?$AAl?$AA?$AA@ 004465b8     MainWindow.obj
 0002:000025c4       ??_C@_1CC@LMBIAHDK@?$AAR?$AAe?$AAc?$AAv?$AAE?$AAd?$AAi?$AAt?$AAM?$AAe?$AAn?$AAu?$AA?4?$AAx?$AAm?$AAl?$AA?$AA@ 004465c4     MainWindow.obj
 0002:000025ec       ??_C@_1CC@HFDLAMMP@?$AAS?$AAe?$AAn?$AAd?$AAE?$AAd?$AAi?$AAt?$AAM?$AAe?$AAn?$AAu?$AA?4?$AAx?$AAm?$AAl?$AA?$AA@ 004465ec     MainWindow.obj
 0002:00002614       ??_C@_19BDAJEHDN@?$AAo?$AAp?$AAe?$AAn?$AA?$AA@ 00446614     MainWindow.obj
 0002:00002620       ??_C@_15DNDOCNBO@?$AA?$CC?$AA?$FN?$AA?$AA@ 00446620     MainWindow.obj
 0002:00002628       ??_C@_15CCEPMBNN@?$AA?$FL?$AA?$CC?$AA?$AA@ 00446628     MainWindow.obj
 0002:00002630       ??_C@_1BC@HENGEFHL@?$AA?$CF?$AAH?$AA?3?$AA?$CF?$AAM?$AA?3?$AA?$CF?$AAS?$AA?$AA@ 00446630     MainWindow.obj
 0002:00002648       ??_C@_15GKDEEFOB@P?$BKY?$CJ?$AA?$AA@ 00446648     MainWindow.obj
 0002:00002650       ??_C@_17MDHLLEBK@?$AA?$CF?$AAs?$AA?$CI?$AA?$AA@ 00446650     MainWindow.obj
 0002:0000265c       ??_C@_1BA@FENNMPHE@?$AA?$CJ?$AA?5?$AA?5?$AA?$CF?$AAs?$AA?$AN?$AA?6?$AA?$AA@ 0044665c     MainWindow.obj
 0002:00002670       ??_C@_15JNBOKNOG@?$AA?$AN?$AA?6?$AA?$AA@ 00446670     MainWindow.obj
 0002:00002678       ??_C@_15KNBIKKIN@?$AA?$CF?$AAd?$AA?$AA@ 00446678     Path.obj
 0002:00002680       ??_C@_17PIMDNJOF@?$AA?$CF?$AAd?$AA?4?$AA?$AA@ 00446680     Path.obj
 0002:00002690       ??_C@_1EE@HAKOGNPH@?$AAs?$AAt?$AAr?$AAi?$AAn?$AAg?$AA?5?$AAi?$AAt?$AAe?$AAr?$AAa?$AAt?$AAo?$AAr?$AA?5?$AAn?$AAo?$AAt?$AA?5?$AAi?$AAn?$AAc?$AAr?$AAe?$AAm?$AAe?$AAn?$AAt?$AAa?$AAb?$AAl@ 00446690     Path.obj
 0002:000026e8       ??_C@_1MO@GAPGDMNB@?$AAs?$AAt?$AAd?$AA?3?$AA?3?$AA_?$AAS?$AAt?$AAr?$AAi?$AAn?$AAg?$AA_?$AAc?$AAo?$AAn?$AAs?$AAt?$AA_?$AAi?$AAt?$AAe?$AAr?$AAa?$AAt?$AAo?$AAr?$AA?$DM?$AAc?$AAl?$AAa?$AAs@ 004466e8     Path.obj
 0002:000027e4       ??_7CPicBarDlg@@6BCWindowWnd@DuiLib@@@ 004467e4     PicBarDlg.obj
 0002:00002870       ??_7CPicBarDlg@@6BINotifyUI@DuiLib@@@ 00446870     PicBarDlg.obj
 0002:0000287c       ??_7CPicBarDlg@@6BIMessageFilterUI@DuiLib@@@ 0044687c     PicBarDlg.obj
 0002:00002888       ??_7CPicBarDlg@@6BIDialogBuilderCallback@DuiLib@@@ 00446888     PicBarDlg.obj
 0002:00002890       ??_C@_1BG@HHNAMBAK@?$AAb?$AAt?$AAn?$AAA?$AAd?$AAd?$AAF?$AAa?$AAc?$AAe?$AA?$AA@ 00446890     PicBarDlg.obj
 0002:000028ac       ??_C@_1BE@PIKMJJBL@?$AAb?$AAt?$AAn?$AAS?$AAa?$AAv?$AAe?$AAA?$AAs?$AA?$AA@ 004468ac     PicBarDlg.obj
 0002:000028c4       ??_C@_1BI@GHMJJJEC@?$AAb?$AAt?$AAn?$AAE?$AAd?$AAi?$AAt?$AAF?$AAa?$AAc?$AAe?$AA?$AA@ 004468c4     PicBarDlg.obj
 0002:000028e0       ??_C@_1BM@ILFIPHNF@?$AAb?$AAt?$AAn?$AAS?$AAe?$AAa?$AAr?$AAc?$AAh?$AAF?$AAa?$AAc?$AAe?$AA?$AA@ 004468e0     PicBarDlg.obj
 0002:00002904       ??_C@_1BK@OCPLAIFN@?$AAb?$AAt?$AAn?$AAS?$AAh?$AAa?$AAr?$AAe?$AAF?$AAa?$AAc?$AAe?$AA?$AA@ 00446904     PicBarDlg.obj
 0002:00002924       ??_C@_1BM@PJFHPNII@?$AAP?$AAi?$AAc?$AAB?$AAa?$AAr?$AAD?$AAl?$AAg?$AA?4?$AAx?$AAm?$AAl?$AA?$AA@ 00446924     PicBarDlg.obj
 0002:00002948       ??_C@_1CC@NDJADACO@?$AAI?$AAm?$AAa?$AAg?$AAe?$AAO?$AAl?$AAe?$AAC?$AAt?$AAr?$AAl?$AA?4?$AAd?$AAl?$AAl?$AA?$AA@ 00446948     RichEditDemo.obj
 0002:00002970       ??_C@_15EGCHAEPE@c?Py?3?$AA?$AA@ 00446970     RichEditDemo.obj
 0002:00002978       ??_C@_1DC@BAFGBOFF@?$AAC?$AAO?$AAM?$HO?DN?vl?hQ?$IMY1?$IN?$CF?$PP?$AM?$FO?$JEu?$CIz?$AL?$FO?$IPe?$OAl?U?$FL?$IMb?$BAR?$BNY?KS?$BGd?MO?2?$PP?$AB?$AA?$AA@ 00446978     RichEditDemo.obj
 0002:000029b4       ??_C@_1BK@NCKGJFFG@?$AAR?$AAi?$AAc?$AAh?$AAe?$AAd?$AA2?$AA0?$AA?4?$AAd?$AAl?$AAl?$AA?$AA@ 004469b4     RichEditDemo.obj
 0002:000029d4       ??_C@_1BA@FOKGNDKK@?$AAQ?$AAQ?$IAJY?$CJ?$FL?y?$IL?$NNhF?$AA?$AA@ 004469d4     RichEditDemo.obj
 0002:000029e8       __GUID_e41fe3bb_7218_423d_952e_96e556aee30f 004469e8     RichEditUtil.obj
 0002:000029fc       ??_C@_1BA@GBHGOCBB@?$AAh?$AAt?$AAt?$AAp?$AA?3?$AA?1?$AA?1?$AA?$AA@ 004469fc     RichEditUtil.obj
 0002:00002a10       ??_C@_15EAJGFGNH@?$AA?1?$AA?1?$AA?$AA@ 00446a10     RichEditUtil.obj
 0002:00002a18       ??_C@_13CGOKJPIL@?$AA?1?$AA?$AA@ 00446a18     RichEditUtil.obj
 0002:00002a1c       ??_C@_1BG@KIBKGMNF@?$AA?1?$AAf?$AA?$FL?$AA?$CC?$AA?$CF?$AA0?$AA3?$AAd?$AA?$CC?$AA?$FN?$AA?$AA@ 00446a1c     RichEditUtil.obj
 0002:00002a38       ??_C@_19JADFPHAN@?$AA?1?$AAc?$AA?$FL?$AA?$CC?$AA?$AA@ 00446a38     RichEditUtil.obj
 0002:00002a44       ?is_signed@?$numeric_limits@G@std@@2_NB 00446a44     stdafx.obj
 0002:00002a48       ?digits@?$numeric_limits@G@std@@2HB 00446a48     stdafx.obj
 0002:00002a4c       ?digits10@?$numeric_limits@G@std@@2HB 00446a4c     stdafx.obj
 0002:00002a50       ?value@?$integral_constant@I$03@std@@2IB 00446a50     stdafx.obj
 0002:00002a54       ?is_signed@?$numeric_limits@H@std@@2_NB 00446a54     stdafx.obj
 0002:00002a58       ?digits@?$numeric_limits@H@std@@2HB 00446a58     stdafx.obj
 0002:00002a5c       ?digits10@?$numeric_limits@H@std@@2HB 00446a5c     stdafx.obj
 0002:00002a60       ?skipws@?$_Iosb@H@std@@2W4_Fmtflags@12@B 00446a60     stdafx.obj
 0002:00002a64       ?unitbuf@?$_Iosb@H@std@@2W4_Fmtflags@12@B 00446a64     stdafx.obj
 0002:00002a68       ?uppercase@?$_Iosb@H@std@@2W4_Fmtflags@12@B 00446a68     stdafx.obj
 0002:00002a6c       ?showbase@?$_Iosb@H@std@@2W4_Fmtflags@12@B 00446a6c     stdafx.obj
 0002:00002a70       ?showpoint@?$_Iosb@H@std@@2W4_Fmtflags@12@B 00446a70     stdafx.obj
 0002:00002a74       ?is_signed@?$numeric_limits@I@std@@2_NB 00446a74     stdafx.obj
 0002:00002a78       ?showpos@?$_Iosb@H@std@@2W4_Fmtflags@12@B 00446a78     stdafx.obj
 0002:00002a7c       ?value@?$integral_constant@I$01@std@@2IB 00446a7c     stdafx.obj
 0002:00002a80       ?digits@?$numeric_limits@I@std@@2HB 00446a80     stdafx.obj
 0002:00002a84       ?left@?$_Iosb@H@std@@2W4_Fmtflags@12@B 00446a84     stdafx.obj
 0002:00002a88       ?value@?$integral_constant@_N$0A@@std@@2_NB 00446a88     stdafx.obj
 0002:00002a8c       ?right@?$_Iosb@H@std@@2W4_Fmtflags@12@B 00446a8c     stdafx.obj
 0002:00002a90       ?digits10@?$numeric_limits@I@std@@2HB 00446a90     stdafx.obj
 0002:00002a94       ?internal@?$_Iosb@H@std@@2W4_Fmtflags@12@B 00446a94     stdafx.obj
 0002:00002a98       ?dec@?$_Iosb@H@std@@2W4_Fmtflags@12@B 00446a98     stdafx.obj
 0002:00002a9c       ?oct@?$_Iosb@H@std@@2W4_Fmtflags@12@B 00446a9c     stdafx.obj
 0002:00002aa0       ?hex@?$_Iosb@H@std@@2W4_Fmtflags@12@B 00446aa0     stdafx.obj
 0002:00002aa4       ?value@?$integral_constant@_N$00@std@@2_NB 00446aa4     stdafx.obj
 0002:00002aa8       ?scientific@?$_Iosb@H@std@@2W4_Fmtflags@12@B 00446aa8     stdafx.obj
 0002:00002aac       ?fixed@?$_Iosb@H@std@@2W4_Fmtflags@12@B 00446aac     stdafx.obj
 0002:00002ab0       ?collate@?$_Locbase@H@std@@2HB 00446ab0     stdafx.obj
 0002:00002ab4       ?ctype@?$_Locbase@H@std@@2HB 00446ab4     stdafx.obj
 0002:00002ab8       ?hexfloat@?$_Iosb@H@std@@2W4_Fmtflags@12@B 00446ab8     stdafx.obj
 0002:00002abc       ?monetary@?$_Locbase@H@std@@2HB 00446abc     stdafx.obj
 0002:00002ac0       ?numeric@?$_Locbase@H@std@@2HB 00446ac0     stdafx.obj
 0002:00002ac4       ?boolalpha@?$_Iosb@H@std@@2W4_Fmtflags@12@B 00446ac4     stdafx.obj
 0002:00002ac8       ?time@?$_Locbase@H@std@@2HB 00446ac8     stdafx.obj
 0002:00002acc       ?_Stdio@?$_Iosb@H@std@@2W4_Fmtflags@12@B 00446acc     stdafx.obj
 0002:00002ad0       ?messages@?$_Locbase@H@std@@2HB 00446ad0     stdafx.obj
 0002:00002ad4       ?all@?$_Locbase@H@std@@2HB 00446ad4     stdafx.obj
 0002:00002ad8       ?adjustfield@?$_Iosb@H@std@@2W4_Fmtflags@12@B 00446ad8     stdafx.obj
 0002:00002adc       ?is_signed@?$numeric_limits@J@std@@2_NB 00446adc     stdafx.obj
 0002:00002ae0       ?none@?$_Locbase@H@std@@2HB 00446ae0     stdafx.obj
 0002:00002ae4       ?basefield@?$_Iosb@H@std@@2W4_Fmtflags@12@B 00446ae4     stdafx.obj
 0002:00002ae8       ?digits@?$numeric_limits@J@std@@2HB 00446ae8     stdafx.obj
 0002:00002aec       ?floatfield@?$_Iosb@H@std@@2W4_Fmtflags@12@B 00446aec     stdafx.obj
 0002:00002af0       ?digits10@?$numeric_limits@J@std@@2HB 00446af0     stdafx.obj
 0002:00002af4       ?goodbit@?$_Iosb@H@std@@2W4_Iostate@12@B 00446af4     stdafx.obj
 0002:00002af8       ?eofbit@?$_Iosb@H@std@@2W4_Iostate@12@B 00446af8     stdafx.obj
 0002:00002afc       ?failbit@?$_Iosb@H@std@@2W4_Iostate@12@B 00446afc     stdafx.obj
 0002:00002b00       ?badbit@?$_Iosb@H@std@@2W4_Iostate@12@B 00446b00     stdafx.obj
 0002:00002b04       ?_Hardfail@?$_Iosb@H@std@@2W4_Iostate@12@B 00446b04     stdafx.obj
 0002:00002b08       ?value@?$integral_constant@I$00@std@@2IB 00446b08     stdafx.obj
 0002:00002b0c       ?in@?$_Iosb@H@std@@2W4_Openmode@12@B 00446b0c     stdafx.obj
 0002:00002b10       ?out@?$_Iosb@H@std@@2W4_Openmode@12@B 00446b10     stdafx.obj
 0002:00002b14       ?ate@?$_Iosb@H@std@@2W4_Openmode@12@B 00446b14     stdafx.obj
 0002:00002b18       ?app@?$_Iosb@H@std@@2W4_Openmode@12@B 00446b18     stdafx.obj
 0002:00002b1c       ?is_signed@?$numeric_limits@K@std@@2_NB 00446b1c     stdafx.obj
 0002:00002b20       ?trunc@?$_Iosb@H@std@@2W4_Openmode@12@B 00446b20     stdafx.obj
 0002:00002b24       ?_Nocreate@?$_Iosb@H@std@@2W4_Openmode@12@B 00446b24     stdafx.obj
 0002:00002b28       ?digits@?$numeric_limits@K@std@@2HB 00446b28     stdafx.obj
 0002:00002b2c       ?_Noreplace@?$_Iosb@H@std@@2W4_Openmode@12@B 00446b2c     stdafx.obj
 0002:00002b30       ?digits10@?$numeric_limits@K@std@@2HB 00446b30     stdafx.obj
 0002:00002b34       ?binary@?$_Iosb@H@std@@2W4_Openmode@12@B 00446b34     stdafx.obj
 0002:00002b38       ?value@?$_Maximum@$S@std@@2IB 00446b38     stdafx.obj
 0002:00002b3c       ?beg@?$_Iosb@H@std@@2W4_Seekdir@12@B 00446b3c     stdafx.obj
 0002:00002b40       ?cur@?$_Iosb@H@std@@2W4_Seekdir@12@B 00446b40     stdafx.obj
 0002:00002b44       ?end@?$_Iosb@H@std@@2W4_Seekdir@12@B 00446b44     stdafx.obj
 0002:00002b48       ?is_signed@?$numeric_limits@_J@std@@2_NB 00446b48     stdafx.obj
 0002:00002b4c       ?digits@?$numeric_limits@_J@std@@2HB 00446b4c     stdafx.obj
 0002:00002b50       ?value@?$integral_constant@I$0A@@std@@2IB 00446b50     stdafx.obj
 0002:00002b54       ?digits10@?$numeric_limits@_J@std@@2HB 00446b54     stdafx.obj
 0002:00002b58       ?is_signed@?$numeric_limits@_K@std@@2_NB 00446b58     stdafx.obj
 0002:00002b5c       ?digits@?$numeric_limits@_K@std@@2HB 00446b5c     stdafx.obj
 0002:00002b60       ?digits10@?$numeric_limits@_K@std@@2HB 00446b60     stdafx.obj
 0002:00002b64       ?digits@?$numeric_limits@M@std@@2HB 00446b64     stdafx.obj
 0002:00002b68       ?digits10@?$numeric_limits@M@std@@2HB 00446b68     stdafx.obj
 0002:00002b6c       ?max_digits10@?$numeric_limits@M@std@@2HB 00446b6c     stdafx.obj
 0002:00002b70       ?max_exponent@?$numeric_limits@M@std@@2HB 00446b70     stdafx.obj
 0002:00002b74       ?max_exponent10@?$numeric_limits@M@std@@2HB 00446b74     stdafx.obj
 0002:00002b78       ?min_exponent@?$numeric_limits@M@std@@2HB 00446b78     stdafx.obj
 0002:00002b7c       ?min_exponent10@?$numeric_limits@M@std@@2HB 00446b7c     stdafx.obj
 0002:00002b80       ?digits@?$numeric_limits@N@std@@2HB 00446b80     stdafx.obj
 0002:00002b84       ?digits10@?$numeric_limits@N@std@@2HB 00446b84     stdafx.obj
 0002:00002b88       ?max_digits10@?$numeric_limits@N@std@@2HB 00446b88     stdafx.obj
 0002:00002b8c       ?max_exponent@?$numeric_limits@N@std@@2HB 00446b8c     stdafx.obj
 0002:00002b90       ?max_exponent10@?$numeric_limits@N@std@@2HB 00446b90     stdafx.obj
 0002:00002b94       ?min_exponent@?$numeric_limits@N@std@@2HB 00446b94     stdafx.obj
 0002:00002b98       ?min_exponent10@?$numeric_limits@N@std@@2HB 00446b98     stdafx.obj
 0002:00002b9c       ?digits@?$numeric_limits@O@std@@2HB 00446b9c     stdafx.obj
 0002:00002ba0       ?digits10@?$numeric_limits@O@std@@2HB 00446ba0     stdafx.obj
 0002:00002ba4       ?max_digits10@?$numeric_limits@O@std@@2HB 00446ba4     stdafx.obj
 0002:00002ba8       ?max_exponent@?$numeric_limits@O@std@@2HB 00446ba8     stdafx.obj
 0002:00002bac       ?max_exponent10@?$numeric_limits@O@std@@2HB 00446bac     stdafx.obj
 0002:00002bb0       ?min_exponent@?$numeric_limits@O@std@@2HB 00446bb0     stdafx.obj
 0002:00002bb4       ?min_exponent10@?$numeric_limits@O@std@@2HB 00446bb4     stdafx.obj
 0002:00002bb8       ?has_denorm@_Num_base@std@@2W4float_denorm_style@2@B 00446bb8     stdafx.obj
 0002:00002bbc       ?has_denorm_loss@_Num_base@std@@2_NB 00446bbc     stdafx.obj
 0002:00002bbd       ?has_infinity@_Num_base@std@@2_NB 00446bbd     stdafx.obj
 0002:00002bbe       ?has_quiet_NaN@_Num_base@std@@2_NB 00446bbe     stdafx.obj
 0002:00002bbf       ?has_signaling_NaN@_Num_base@std@@2_NB 00446bbf     stdafx.obj
 0002:00002bc0       ?is_bounded@_Num_base@std@@2_NB 00446bc0     stdafx.obj
 0002:00002bc1       ?is_exact@_Num_base@std@@2_NB 00446bc1     stdafx.obj
 0002:00002bc2       ?is_iec559@_Num_base@std@@2_NB 00446bc2     stdafx.obj
 0002:00002bc3       ?is_integer@_Num_base@std@@2_NB 00446bc3     stdafx.obj
 0002:00002bc4       ?is_modulo@_Num_base@std@@2_NB 00446bc4     stdafx.obj
 0002:00002bc5       ?is_signed@_Num_base@std@@2_NB 00446bc5     stdafx.obj
 0002:00002bc6       ?is_specialized@_Num_base@std@@2_NB 00446bc6     stdafx.obj
 0002:00002bc7       ?tinyness_before@_Num_base@std@@2_NB 00446bc7     stdafx.obj
 0002:00002bc8       ?traps@_Num_base@std@@2_NB 00446bc8     stdafx.obj
 0002:00002bcc       ?round_style@_Num_base@std@@2W4float_round_style@2@B 00446bcc     stdafx.obj
 0002:00002bd0       ?digits@_Num_base@std@@2HB 00446bd0     stdafx.obj
 0002:00002bd4       ?digits10@_Num_base@std@@2HB 00446bd4     stdafx.obj
 0002:00002bd8       ?max_digits10@_Num_base@std@@2HB 00446bd8     stdafx.obj
 0002:00002bdc       ?max_exponent@_Num_base@std@@2HB 00446bdc     stdafx.obj
 0002:00002be0       ?max_exponent10@_Num_base@std@@2HB 00446be0     stdafx.obj
 0002:00002be4       ?min_exponent@_Num_base@std@@2HB 00446be4     stdafx.obj
 0002:00002be8       ?min_exponent10@_Num_base@std@@2HB 00446be8     stdafx.obj
 0002:00002bec       ?radix@_Num_base@std@@2HB  00446bec     stdafx.obj
 0002:00002bf0       ?is_bounded@_Num_int_base@std@@2_NB 00446bf0     stdafx.obj
 0002:00002bf1       ?is_exact@_Num_int_base@std@@2_NB 00446bf1     stdafx.obj
 0002:00002bf2       ?is_integer@_Num_int_base@std@@2_NB 00446bf2     stdafx.obj
 0002:00002bf3       ?is_modulo@_Num_int_base@std@@2_NB 00446bf3     stdafx.obj
 0002:00002bf4       ?is_specialized@_Num_int_base@std@@2_NB 00446bf4     stdafx.obj
 0002:00002bf8       ?radix@_Num_int_base@std@@2HB 00446bf8     stdafx.obj
 0002:00002bfc       ?has_denorm@_Num_float_base@std@@2W4float_denorm_style@2@B 00446bfc     stdafx.obj
 0002:00002c00       ?has_denorm_loss@_Num_float_base@std@@2_NB 00446c00     stdafx.obj
 0002:00002c01       ?has_infinity@_Num_float_base@std@@2_NB 00446c01     stdafx.obj
 0002:00002c02       ?has_quiet_NaN@_Num_float_base@std@@2_NB 00446c02     stdafx.obj
 0002:00002c03       ?has_signaling_NaN@_Num_float_base@std@@2_NB 00446c03     stdafx.obj
 0002:00002c04       ?is_bounded@_Num_float_base@std@@2_NB 00446c04     stdafx.obj
 0002:00002c05       ?is_exact@_Num_float_base@std@@2_NB 00446c05     stdafx.obj
 0002:00002c06       ?is_iec559@_Num_float_base@std@@2_NB 00446c06     stdafx.obj
 0002:00002c07       ?is_integer@_Num_float_base@std@@2_NB 00446c07     stdafx.obj
 0002:00002c08       ?is_modulo@_Num_float_base@std@@2_NB 00446c08     stdafx.obj
 0002:00002c09       ?is_signed@_Num_float_base@std@@2_NB 00446c09     stdafx.obj
 0002:00002c0a       ?is_specialized@_Num_float_base@std@@2_NB 00446c0a     stdafx.obj
 0002:00002c0b       ?tinyness_before@_Num_float_base@std@@2_NB 00446c0b     stdafx.obj
 0002:00002c0c       ?traps@_Num_float_base@std@@2_NB 00446c0c     stdafx.obj
 0002:00002c10       ?round_style@_Num_float_base@std@@2W4float_round_style@2@B 00446c10     stdafx.obj
 0002:00002c14       ?radix@_Num_float_base@std@@2HB 00446c14     stdafx.obj
 0002:00002c18       ?is_signed@?$numeric_limits@D@std@@2_NB 00446c18     stdafx.obj
 0002:00002c1c       ?digits@?$numeric_limits@D@std@@2HB 00446c1c     stdafx.obj
 0002:00002c20       ?digits10@?$numeric_limits@D@std@@2HB 00446c20     stdafx.obj
 0002:00002c24       ?is_signed@?$numeric_limits@_W@std@@2_NB 00446c24     stdafx.obj
 0002:00002c28       ?digits@?$numeric_limits@_W@std@@2HB 00446c28     stdafx.obj
 0002:00002c2c       ?digits10@?$numeric_limits@_W@std@@2HB 00446c2c     stdafx.obj
 0002:00002c30       ?is_modulo@?$numeric_limits@_N@std@@2_NB 00446c30     stdafx.obj
 0002:00002c31       ?is_signed@?$numeric_limits@_N@std@@2_NB 00446c31     stdafx.obj
 0002:00002c34       ?digits@?$numeric_limits@_N@std@@2HB 00446c34     stdafx.obj
 0002:00002c38       ?digits10@?$numeric_limits@_N@std@@2HB 00446c38     stdafx.obj
 0002:00002c3c       ?is_signed@?$numeric_limits@C@std@@2_NB 00446c3c     stdafx.obj
 0002:00002c40       ?digits@?$numeric_limits@C@std@@2HB 00446c40     stdafx.obj
 0002:00002c44       ?digits10@?$numeric_limits@C@std@@2HB 00446c44     stdafx.obj
 0002:00002c48       ?is_signed@?$numeric_limits@E@std@@2_NB 00446c48     stdafx.obj
 0002:00002c4c       ?digits@?$numeric_limits@E@std@@2HB 00446c4c     stdafx.obj
 0002:00002c50       ?digits10@?$numeric_limits@E@std@@2HB 00446c50     stdafx.obj
 0002:00002c54       ?value@?$integral_constant@I$07@std@@2IB 00446c54     stdafx.obj
 0002:00002c58       ?is_signed@?$numeric_limits@F@std@@2_NB 00446c58     stdafx.obj
 0002:00002c5c       ?digits@?$numeric_limits@F@std@@2HB 00446c5c     stdafx.obj
 0002:00002c60       ?digits10@?$numeric_limits@F@std@@2HB 00446c60     stdafx.obj
 0002:00002c68       ??_7error_category@std@@6B@ 00446c68     stdafx.obj
 0002:00002c8c       ??_7_Generic_error_category@std@@6B@ 00446c8c     stdafx.obj
 0002:00002cac       ??_C@_07DCLBNMLN@generic?$AA@ 00446cac     stdafx.obj
 0002:00002cb8       ??_C@_0O@BFJCFAAK@unknown?5error?$AA@ 00446cb8     stdafx.obj
 0002:00002ccc       ??_7_Iostream_error_category@std@@6B@ 00446ccc     stdafx.obj
 0002:00002cec       ??_C@_08LLGCOLLL@iostream?$AA@ 00446cec     stdafx.obj
 0002:00002cf8       ??_C@_0BG@PADBLCHM@iostream?5stream?5error?$AA@ 00446cf8     stdafx.obj
 0002:00002d18       ??_7_System_error_category@std@@6B@ 00446d18     stdafx.obj
 0002:00002d38       ??_C@_06FHFOAHML@system?$AA@ 00446d38     stdafx.obj
 0002:00002d40       ?kUIActiveXClassName@DuiLib@@3QB_WB 00446d40     UICrack.obj
 0002:00002d44       ?kUIActiveXInterfaceName@DuiLib@@3QB_WB 00446d44     UICrack.obj
 0002:00002d48       ?kComboUIClassName@DuiLib@@3QB_WB 00446d48     UICrack.obj
 0002:00002d4c       ?kComboUIInterfaceName@DuiLib@@3QB_WB 00446d4c     UICrack.obj
 0002:00002d50       ?kLabelUIClassName@DuiLib@@3QB_WB 00446d50     UICrack.obj
 0002:00002d54       ?kLabelUIInterfaceName@DuiLib@@3QB_WB 00446d54     UICrack.obj
 0002:00002d58       ?kButtonUIClassName@DuiLib@@3QB_WB 00446d58     UICrack.obj
 0002:00002d5c       ?kButtonUIInterfaceName@DuiLib@@3QB_WB 00446d5c     UICrack.obj
 0002:00002d60       ?kOptionUIClassName@DuiLib@@3QB_WB 00446d60     UICrack.obj
 0002:00002d64       ?kOptionUIInterfaceName@DuiLib@@3QB_WB 00446d64     UICrack.obj
 0002:00002d68       ?kTextUIClassName@DuiLib@@3QB_WB 00446d68     UICrack.obj
 0002:00002d6c       ?kTextUIInterfaceName@DuiLib@@3QB_WB 00446d6c     UICrack.obj
 0002:00002d70       ?kProgressUIClassName@DuiLib@@3QB_WB 00446d70     UICrack.obj
 0002:00002d74       ?kProgressUIInterfaceName@DuiLib@@3QB_WB 00446d74     UICrack.obj
 0002:00002d78       ?kSliderUIClassName@DuiLib@@3QB_WB 00446d78     UICrack.obj
 0002:00002d7c       ?kSliderUIInterfaceName@DuiLib@@3QB_WB 00446d7c     UICrack.obj
 0002:00002d80       ?kEditUIClassName@DuiLib@@3QB_WB 00446d80     UICrack.obj
 0002:00002d84       ?kEditUIInterfaceName@DuiLib@@3QB_WB 00446d84     UICrack.obj
 0002:00002d88       ?kIEditUIInterfaceName@DuiLib@@3QB_WB 00446d88     UICrack.obj
 0002:00002d8c       ?kScrollBarUIClassName@DuiLib@@3QB_WB 00446d8c     UICrack.obj
 0002:00002d90       ?kScrollBarUIInterfaceName@DuiLib@@3QB_WB 00446d90     UICrack.obj
 0002:00002d94       ?kContainerUIClassName@DuiLib@@3QB_WB 00446d94     UICrack.obj
 0002:00002d98       ?kContainerUIInterfaceName@DuiLib@@3QB_WB 00446d98     UICrack.obj
 0002:00002d9c       ?kIContainerUIInterfaceName@DuiLib@@3QB_WB 00446d9c     UICrack.obj
 0002:00002da0       ?kVerticalLayoutUIClassName@DuiLib@@3QB_WB 00446da0     UICrack.obj
 0002:00002da4       ?kVerticalLayoutUIInterfaceName@DuiLib@@3QB_WB 00446da4     UICrack.obj
 0002:00002da8       ?kHorizontalLayoutUIClassName@DuiLib@@3QB_WB 00446da8     UICrack.obj
 0002:00002dac       ?kHorizontalLayoutUIInterfaceName@DuiLib@@3QB_WB 00446dac     UICrack.obj
 0002:00002db0       ?kTileLayoutUIClassName@DuiLib@@3QB_WB 00446db0     UICrack.obj
 0002:00002db4       ?kTileLayoutUIInterfaceName@DuiLib@@3QB_WB 00446db4     UICrack.obj
 0002:00002db8       ?kDialogLayoutUIClassName@DuiLib@@3QB_WB 00446db8     UICrack.obj
 0002:00002dbc       ?kDialogLayoutUIInterfaceName@DuiLib@@3QB_WB 00446dbc     UICrack.obj
 0002:00002dc0       ?kTabLayoutUIClassName@DuiLib@@3QB_WB 00446dc0     UICrack.obj
 0002:00002dc4       ?kTabLayoutUIInterfaceName@DuiLib@@3QB_WB 00446dc4     UICrack.obj
 0002:00002dc8       ?kControlUIClassName@DuiLib@@3QB_WB 00446dc8     UICrack.obj
 0002:00002dcc       ?kControlUIInterfaceName@DuiLib@@3QB_WB 00446dcc     UICrack.obj
 0002:00002dd0       ?kListUIClassName@DuiLib@@3QB_WB 00446dd0     UICrack.obj
 0002:00002dd4       ?kListUIInterfaceName@DuiLib@@3QB_WB 00446dd4     UICrack.obj
 0002:00002dd8       ?kIListUIInterfaceName@DuiLib@@3QB_WB 00446dd8     UICrack.obj
 0002:00002ddc       ?kIListOwnerUIInterfaceName@DuiLib@@3QB_WB 00446ddc     UICrack.obj
 0002:00002de0       ?kListHeaderUIClassName@DuiLib@@3QB_WB 00446de0     UICrack.obj
 0002:00002de4       ?kListHeaderUIInterfaceName@DuiLib@@3QB_WB 00446de4     UICrack.obj
 0002:00002de8       ?kListHeaderItemUIClassName@DuiLib@@3QB_WB 00446de8     UICrack.obj
 0002:00002dec       ?kListHeaderItemUIInterfaceName@DuiLib@@3QB_WB 00446dec     UICrack.obj
 0002:00002df0       ?kListElementUIClassName@DuiLib@@3QB_WB 00446df0     UICrack.obj
 0002:00002df4       ?kListElementUIInterfaceName@DuiLib@@3QB_WB 00446df4     UICrack.obj
 0002:00002df8       ?kIListItemUIInterfaceName@DuiLib@@3QB_WB 00446df8     UICrack.obj
 0002:00002dfc       ?kListLabelElementUIClassName@DuiLib@@3QB_WB 00446dfc     UICrack.obj
 0002:00002e00       ?kListLabelElementUIInterfaceName@DuiLib@@3QB_WB 00446e00     UICrack.obj
 0002:00002e04       ?kListTextElementUIClassName@DuiLib@@3QB_WB 00446e04     UICrack.obj
 0002:00002e08       ?kListTextElementUIInterfaceName@DuiLib@@3QB_WB 00446e08     UICrack.obj
 0002:00002e0c       ?kListContainerElementUIClassName@DuiLib@@3QB_WB 00446e0c     UICrack.obj
 0002:00002e10       ?kListContainerElementUIInterfaceName@DuiLib@@3QB_WB 00446e10     UICrack.obj
 0002:00002e14       ?kRichEditUIClassName@DuiLib@@3QB_WB 00446e14     UICrack.obj
 0002:00002e18       ?kRichEditUIInterfaceName@DuiLib@@3QB_WB 00446e18     UICrack.obj
 0002:00002e1c       ?kWindowInit@DuiLib@@3QB_WB 00446e1c     UICrack.obj
 0002:00002e20       ?kClick@DuiLib@@3QB_WB     00446e20     UICrack.obj
 0002:00002e24       ?kSelectChanged@DuiLib@@3QB_WB 00446e24     UICrack.obj
 0002:00002e28       ?kItemSelect@DuiLib@@3QB_WB 00446e28     UICrack.obj
 0002:00002e2c       ?kItemActivate@DuiLib@@3QB_WB 00446e2c     UICrack.obj
 0002:00002e30       ?kItemClick@DuiLib@@3QB_WB 00446e30     UICrack.obj
 0002:00002e34       ?kDropDown@DuiLib@@3QB_WB  00446e34     UICrack.obj
 0002:00002e38       ?kTimer@DuiLib@@3QB_WB     00446e38     UICrack.obj
 0002:00002e3c       ?kMenu@DuiLib@@3QB_WB      00446e3c     UICrack.obj
 0002:00002e40       ?kReturn@DuiLib@@3QB_WB    00446e40     UICrack.obj
 0002:00002e44       ?kTextChanged@DuiLib@@3QB_WB 00446e44     UICrack.obj
 0002:00002e48       ?kKillFocus@DuiLib@@3QB_WB 00446e48     UICrack.obj
 0002:00002e4c       ?kSetFocus@DuiLib@@3QB_WB  00446e4c     UICrack.obj
 0002:00002e50       ?kValueChanged@DuiLib@@3QB_WB 00446e50     UICrack.obj
 0002:00002e8c       ??_C@_1BE@EEABOIEH@?$AAA?$AAc?$AAt?$AAi?$AAv?$AAe?$AAX?$AAU?$AAI?$AA?$AA@ 00446e8c     UICrack.obj
 0002:00002ea4       ??_C@_1BA@FFOPMNLB@?$AAA?$AAc?$AAt?$AAi?$AAv?$AAe?$AAX?$AA?$AA@ 00446ea4     UICrack.obj
 0002:00002eb8       ??_C@_1BA@BOMAEIDC@?$AAC?$AAo?$AAm?$AAb?$AAo?$AAU?$AAI?$AA?$AA@ 00446eb8     UICrack.obj
 0002:00002ecc       ??_C@_1M@IOKMPPAD@?$AAC?$AAo?$AAm?$AAb?$AAo?$AA?$AA@ 00446ecc     UICrack.obj
 0002:00002edc       ??_C@_1BA@EFHGPJGD@?$AAL?$AAa?$AAb?$AAe?$AAl?$AAU?$AAI?$AA?$AA@ 00446edc     UICrack.obj
 0002:00002ef0       ??_C@_1M@DEGBNNDL@?$AAL?$AAa?$AAb?$AAe?$AAl?$AA?$AA@ 00446ef0     UICrack.obj
 0002:00002f00       ??_C@_1BC@JNPKAAM@?$AAB?$AAu?$AAt?$AAt?$AAo?$AAn?$AAU?$AAI?$AA?$AA@ 00446f00     UICrack.obj
 0002:00002f18       ??_C@_1O@MHJJMELH@?$AAB?$AAu?$AAt?$AAt?$AAo?$AAn?$AA?$AA@ 00446f18     UICrack.obj
 0002:00002f28       ??_C@_1BC@BCJKFOOD@?$AAO?$AAp?$AAt?$AAi?$AAo?$AAn?$AAU?$AAI?$AA?$AA@ 00446f28     UICrack.obj
 0002:00002f40       ??_C@_1O@PHOOHAG@?$AAO?$AAp?$AAt?$AAi?$AAo?$AAn?$AA?$AA@ 00446f40     UICrack.obj
 0002:00002f50       ??_C@_1O@NHMJANFD@?$AAT?$AAe?$AAx?$AAt?$AAU?$AAI?$AA?$AA@ 00446f50     UICrack.obj
 0002:00002f60       ??_C@_19DHKNKHAD@?$AAT?$AAe?$AAx?$AAt?$AA?$AA@ 00446f60     UICrack.obj
 0002:00002f6c       ??_C@_1BG@NKGBFJAM@?$AAP?$AAr?$AAo?$AAg?$AAr?$AAe?$AAs?$AAs?$AAU?$AAI?$AA?$AA@ 00446f6c     UICrack.obj
 0002:00002f88       ??_C@_1BC@EMAELPIP@?$AAP?$AAr?$AAo?$AAg?$AAr?$AAe?$AAs?$AAs?$AA?$AA@ 00446f88     UICrack.obj
 0002:00002fa0       ??_C@_1BC@BCBEGPND@?$AAS?$AAl?$AAi?$AAd?$AAe?$AAr?$AAU?$AAI?$AA?$AA@ 00446fa0     UICrack.obj
 0002:00002fb8       ??_C@_1O@LICKDOPC@?$AAS?$AAl?$AAi?$AAd?$AAe?$AAr?$AA?$AA@ 00446fb8     UICrack.obj
 0002:00002fc8       ??_C@_1O@HPLNHGPA@?$AAE?$AAd?$AAi?$AAt?$AAU?$AAI?$AA?$AA@ 00446fc8     UICrack.obj
 0002:00002fd8       ??_C@_19PLOBJMHF@?$AAE?$AAd?$AAi?$AAt?$AA?$AA@ 00446fd8     UICrack.obj
 0002:00002fe4       ??_C@_1BI@LMJKFKMD@?$AAS?$AAc?$AAr?$AAo?$AAl?$AAl?$AAB?$AAa?$AAr?$AAU?$AAI?$AA?$AA@ 00446fe4     UICrack.obj
 0002:00003000       ??_C@_1BE@IKNKCOBD@?$AAS?$AAc?$AAr?$AAo?$AAl?$AAl?$AAB?$AAa?$AAr?$AA?$AA@ 00447000     UICrack.obj
 0002:00003018       ??_C@_1BI@FPKODDHB@?$AAC?$AAo?$AAn?$AAt?$AAa?$AAi?$AAn?$AAe?$AAr?$AAU?$AAI?$AA?$AA@ 00447018     UICrack.obj
 0002:00003034       ??_C@_1BE@FDKEOJEO@?$AAC?$AAo?$AAn?$AAt?$AAa?$AAi?$AAn?$AAe?$AAr?$AA?$AA@ 00447034     UICrack.obj
 0002:0000304c       ??_C@_1BG@JAHNKCCE@?$AAI?$AAC?$AAo?$AAn?$AAt?$AAa?$AAi?$AAn?$AAe?$AAr?$AA?$AA@ 0044704c     UICrack.obj
 0002:00003068       ??_C@_1CC@NDHFNKIK@?$AAV?$AAe?$AAr?$AAt?$AAi?$AAc?$AAa?$AAl?$AAL?$AAa?$AAy?$AAo?$AAu?$AAt?$AAU?$AAI?$AA?$AA@ 00447068     UICrack.obj
 0002:00003090       ??_C@_1BO@OGDFBBDK@?$AAV?$AAe?$AAr?$AAt?$AAi?$AAc?$AAa?$AAl?$AAL?$AAa?$AAy?$AAo?$AAu?$AAt?$AA?$AA@ 00447090     UICrack.obj
 0002:000030b4       ??_C@_1CG@PBNDIPCM@?$AAH?$AAo?$AAr?$AAi?$AAz?$AAo?$AAn?$AAt?$AAa?$AAl?$AAL?$AAa?$AAy?$AAo?$AAu?$AAt?$AAU?$AAI?$AA?$AA@ 004470b4     UICrack.obj
 0002:000030e4       ??_C@_1CC@FIEPGDG@?$AAH?$AAo?$AAr?$AAi?$AAz?$AAo?$AAn?$AAt?$AAa?$AAl?$AAL?$AAa?$AAy?$AAo?$AAu?$AAt?$AA?$AA@ 004470e4     UICrack.obj
 0002:0000310c       ??_C@_1BK@JBBHGHFN@?$AAT?$AAi?$AAl?$AAe?$AAL?$AAa?$AAy?$AAo?$AAu?$AAt?$AAU?$AAI?$AA?$AA@ 0044710c     UICrack.obj
 0002:0000312c       ??_C@_1BG@GDMCLJPM@?$AAT?$AAi?$AAl?$AAe?$AAL?$AAa?$AAy?$AAo?$AAu?$AAt?$AA?$AA@ 0044712c     UICrack.obj
 0002:00003148       ??_C@_1BO@HDPMJHJC@?$AAD?$AAi?$AAa?$AAl?$AAo?$AAg?$AAL?$AAa?$AAy?$AAo?$AAu?$AAt?$AAU?$AAI?$AA?$AA@ 00447148     UICrack.obj
 0002:0000316c       ??_C@_1BK@CNCGBNNJ@?$AAD?$AAi?$AAa?$AAl?$AAo?$AAg?$AAL?$AAa?$AAy?$AAo?$AAu?$AAt?$AA?$AA@ 0044716c     UICrack.obj
 0002:0000318c       ??_C@_1BI@HBDLIIBI@?$AAT?$AAa?$AAb?$AAL?$AAa?$AAy?$AAo?$AAu?$AAt?$AAU?$AAI?$AA?$AA@ 0044718c     UICrack.obj
 0002:000031a8       ??_C@_1BE@LJBPKDAK@?$AAT?$AAa?$AAb?$AAL?$AAa?$AAy?$AAo?$AAu?$AAt?$AA?$AA@ 004471a8     UICrack.obj
 0002:000031c0       ??_C@_1BE@EEEJNJHF@?$AAC?$AAo?$AAn?$AAt?$AAr?$AAo?$AAl?$AAU?$AAI?$AA?$AA@ 004471c0     UICrack.obj
 0002:000031d8       ??_C@_1BA@JGFNDEFA@?$AAC?$AAo?$AAn?$AAt?$AAr?$AAo?$AAl?$AA?$AA@ 004471d8     UICrack.obj
 0002:000031ec       ??_C@_1O@HPMIJJHP@?$AAL?$AAi?$AAs?$AAt?$AAU?$AAI?$AA?$AA@ 004471ec     UICrack.obj
 0002:000031fc       ??_C@_19DOLMIDJD@?$AAL?$AAi?$AAs?$AAt?$AA?$AA@ 004471fc     UICrack.obj
 0002:00003208       ??_C@_1M@LCJKAOL@?$AAI?$AAL?$AAi?$AAs?$AAt?$AA?$AA@ 00447208     UICrack.obj
 0002:00003218       ??_C@_1BG@MFJEKLPK@?$AAI?$AAL?$AAi?$AAs?$AAt?$AAO?$AAw?$AAn?$AAe?$AAr?$AA?$AA@ 00447218     UICrack.obj
 0002:00003234       ??_C@_1BK@IEIBEGEB@?$AAL?$AAi?$AAs?$AAt?$AAH?$AAe?$AAa?$AAd?$AAe?$AAr?$AAU?$AAI?$AA?$AA@ 00447234     UICrack.obj
 0002:00003254       ??_C@_1BG@LGOBLGKL@?$AAL?$AAi?$AAs?$AAt?$AAH?$AAe?$AAa?$AAd?$AAe?$AAr?$AA?$AA@ 00447254     UICrack.obj
 0002:00003270       ??_C@_1CC@FDNIDNBJ@?$AAL?$AAi?$AAs?$AAt?$AAH?$AAe?$AAa?$AAd?$AAe?$AAr?$AAI?$AAt?$AAe?$AAm?$AAU?$AAI?$AA?$AA@ 00447270     UICrack.obj
 0002:00003298       ??_C@_1BO@CNNNLGOE@?$AAL?$AAi?$AAs?$AAt?$AAH?$AAe?$AAa?$AAd?$AAe?$AAr?$AAI?$AAt?$AAe?$AAm?$AA?$AA@ 00447298     UICrack.obj
 0002:000032bc       ??_C@_1BM@NIKOGFBO@?$AAL?$AAi?$AAs?$AAt?$AAE?$AAl?$AAe?$AAm?$AAe?$AAn?$AAt?$AAU?$AAI?$AA?$AA@ 004472bc     UICrack.obj
 0002:000032e0       ??_C@_1BI@KHLHJNPN@?$AAL?$AAi?$AAs?$AAt?$AAE?$AAl?$AAe?$AAm?$AAe?$AAn?$AAt?$AA?$AA@ 004472e0     UICrack.obj
 0002:000032fc       ??_C@_1BC@LACIJEKD@?$AAL?$AAi?$AAs?$AAt?$AAI?$AAt?$AAe?$AAm?$AA?$AA@ 004472fc     UICrack.obj
 0002:00003314       ??_C@_1CG@HLDAGBPJ@?$AAL?$AAi?$AAs?$AAt?$AAL?$AAa?$AAb?$AAe?$AAl?$AAE?$AAl?$AAe?$AAm?$AAe?$AAn?$AAt?$AAU?$AAI?$AA?$AA@ 00447314     UICrack.obj
 0002:00003344       ??_C@_1CC@MKADDNJA@?$AAL?$AAi?$AAs?$AAt?$AAL?$AAa?$AAb?$AAe?$AAl?$AAE?$AAl?$AAe?$AAm?$AAe?$AAn?$AAt?$AA?$AA@ 00447344     UICrack.obj
 0002:0000336c       ??_C@_1CE@EPJDGOOH@?$AAL?$AAi?$AAs?$AAt?$AAT?$AAe?$AAx?$AAt?$AAE?$AAl?$AAe?$AAm?$AAe?$AAn?$AAt?$AAU?$AAI?$AA?$AA@ 0044736c     UICrack.obj
 0002:00003398       ??_C@_1CA@PEPGKBDG@?$AAL?$AAi?$AAs?$AAt?$AAT?$AAe?$AAx?$AAt?$AAE?$AAl?$AAe?$AAm?$AAe?$AAn?$AAt?$AA?$AA@ 00447398     UICrack.obj
 0002:000033c0       ??_C@_1CO@PJOANFBM@?$AAL?$AAi?$AAs?$AAt?$AAC?$AAo?$AAn?$AAt?$AAa?$AAi?$AAn?$AAe?$AAr?$AAE?$AAl?$AAe?$AAm?$AAe?$AAn?$AAt?$AAU?$AAI?$AA?$AA@ 004473c0     UICrack.obj
 0002:000033f8       ??_C@_1CK@JKABEBGA@?$AAL?$AAi?$AAs?$AAt?$AAC?$AAo?$AAn?$AAt?$AAa?$AAi?$AAn?$AAe?$AAr?$AAE?$AAl?$AAe?$AAm?$AAe?$AAn?$AAt?$AA?$AA@ 004473f8     UICrack.obj
 0002:0000342c       ??_C@_1BG@NLGBAEMC@?$AAR?$AAi?$AAc?$AAh?$AAE?$AAd?$AAi?$AAt?$AAU?$AAI?$AA?$AA@ 0044742c     UICrack.obj
 0002:00003448       ??_C@_1BC@NEFCEPOI@?$AAR?$AAi?$AAc?$AAh?$AAE?$AAd?$AAi?$AAt?$AA?$AA@ 00447448     UICrack.obj
 0002:00003460       ??_C@_1BG@LEKJCKOE@?$AAw?$AAi?$AAn?$AAd?$AAo?$AAw?$AAi?$AAn?$AAi?$AAt?$AA?$AA@ 00447460     UICrack.obj
 0002:0000347c       ??_C@_1BM@HGPLKIHI@?$AAs?$AAe?$AAl?$AAe?$AAc?$AAt?$AAc?$AAh?$AAa?$AAn?$AAg?$AAe?$AAd?$AA?$AA@ 0044747c     UICrack.obj
 0002:000034a0       ??_C@_1BK@NCDHHILC@?$AAi?$AAt?$AAe?$AAm?$AAa?$AAc?$AAt?$AAi?$AAv?$AAa?$AAt?$AAe?$AA?$AA@ 004474a0     UICrack.obj
 0002:000034c0       ??_C@_1BE@KEJJHJFG@?$AAi?$AAt?$AAe?$AAm?$AAc?$AAl?$AAi?$AAc?$AAk?$AA?$AA@ 004474c0     UICrack.obj
 0002:000034d8       ??_C@_1BC@MOFLKIOB@?$AAd?$AAr?$AAo?$AAp?$AAd?$AAo?$AAw?$AAn?$AA?$AA@ 004474d8     UICrack.obj
 0002:000034f0       ??_C@_19MOHIIIBC@?$AAm?$AAe?$AAn?$AAu?$AA?$AA@ 004474f0     UICrack.obj
 0002:000034fc       ??_C@_1O@BDLFHMCE@?$AAr?$AAe?$AAt?$AAu?$AAr?$AAn?$AA?$AA@ 004474fc     UICrack.obj
 0002:0000350c       ??_C@_1BI@OOFPLDKD@?$AAt?$AAe?$AAx?$AAt?$AAc?$AAh?$AAa?$AAn?$AAg?$AAe?$AAd?$AA?$AA@ 0044750c     UICrack.obj
 0002:00003528       ??_C@_1BE@FBFNDNKM@?$AAk?$AAi?$AAl?$AAl?$AAf?$AAo?$AAc?$AAu?$AAs?$AA?$AA@ 00447528     UICrack.obj
 0002:00003540       ??_C@_1BC@JAFDLHBK@?$AAs?$AAe?$AAt?$AAf?$AAo?$AAc?$AAu?$AAs?$AA?$AA@ 00447540     UICrack.obj
 0002:00003558       ??_C@_1BK@HCHCLMDL@?$AAv?$AAa?$AAl?$AAu?$AAe?$AAc?$AAh?$AAa?$AAn?$AAg?$AAe?$AAd?$AA?$AA@ 00447558     UICrack.obj
 0002:00003578       ??_C@_1O@PJDHDPEO@?$AAM?$AAe?$AAn?$AAu?$AAU?$AAI?$AA?$AA@ 00447578     UIMenu.obj
 0002:00003588       ??_C@_19IBCFILMC@?$AAM?$AAe?$AAn?$AAu?$AA?$AA@ 00447588     UIMenu.obj
 0002:00003594       ?kMenuUIClassName@DuiLib@@3QB_WB 00447594     UIMenu.obj
 0002:00003598       ?kMenuUIInterfaceName@DuiLib@@3QB_WB 00447598     UIMenu.obj
 0002:0000359c       ?kMenuElementUIClassName@DuiLib@@3QB_WB 0044759c     UIMenu.obj
 0002:000035a0       ?kMenuElementUIInterfaceName@DuiLib@@3QB_WB 004475a0     UIMenu.obj
 0002:000035a8       ??_C@_1BM@PEMLPPFK@?$AAM?$AAe?$AAn?$AAu?$AAE?$AAl?$AAe?$AAm?$AAe?$AAn?$AAt?$AAU?$AAI?$AA?$AA@ 004475a8     UIMenu.obj
 0002:000035cc       ??_C@_1BI@HKLFFGLD@?$AAM?$AAe?$AAn?$AAu?$AAE?$AAl?$AAe?$AAm?$AAe?$AAn?$AAt?$AA?$AA@ 004475cc     UIMenu.obj
 0002:000035ec       ??_7IDialogBuilderCallback@DuiLib@@6B@ 004475ec     UIMenu.obj
 0002:000035f8       ??_7?$ObserverImplBase@HUContextMenuParam@DuiLib@@@@6B@ 004475f8     UIMenu.obj
 0002:00003614       ??_7?$ObserverImpl@HUContextMenuParam@DuiLib@@@@6B@ 00447614     UIMenu.obj
 0002:00003638       ??_7CMenuUI@DuiLib@@6BCControlUI@1@@ 00447638     UIMenu.obj
 0002:0000383c       ??_7CMenuUI@DuiLib@@6BIContainerUI@1@@ 0044783c     UIMenu.obj
 0002:0000386c       ??_7CMenuUI@DuiLib@@6B@    0044786c     UIMenu.obj
 0002:000038a0       ??_7?$ReceiverImplBase@HUContextMenuParam@DuiLib@@@@6B@ 004478a0     UIMenu.obj
 0002:000038b8       ??_7?$ReceiverImpl@HUContextMenuParam@DuiLib@@@@6B@ 004478b8     UIMenu.obj
 0002:000038d4       ??_7CMenuWnd@DuiLib@@6BCWindowWnd@1@@ 004478d4     UIMenu.obj
 0002:000038f0       ??_7CMenuWnd@DuiLib@@6B?$ReceiverImpl@HUContextMenuParam@DuiLib@@@@@ 004478f0     UIMenu.obj
 0002:0000390c       ??_7CMenuElementUI@DuiLib@@6BCControlUI@1@@ 0044790c     UIMenu.obj
 0002:00003b10       ??_7CMenuElementUI@DuiLib@@6BIContainerUI@1@@ 00447b10     UIMenu.obj
 0002:00003b40       ??_7CMenuElementUI@DuiLib@@6B@ 00447b40     UIMenu.obj
 0002:00003b70       ??_7CMenuBuilderCallback@DuiLib@@6B@ 00447b70     UIMenu.obj
 0002:00003b78       ??_C@_1BA@DEFEOECG@?$AAM?$AAe?$AAn?$AAu?$AAW?$AAn?$AAd?$AA?$AA@ 00447b78     UIMenu.obj
 0002:00003b8c       ??_C@_1BE@LHLACBCH@?$AAm?$AA_?$AAp?$AAW?$AAi?$AAn?$AAd?$AAo?$AAw?$AA?$AA@ 00447b8c     UIMenu.obj
 0002:00003ba8       ??_C@_1IA@CKMJCHLH@?$AAe?$AA?3?$AA?2?$AAm?$AAy?$AAd?$AAu?$AAi?$AAl?$AAi?$AAb?$AA?2?$AAd?$AAu?$AAi?$AAl?$AAi?$AAb?$AA_?$AAs?$AAo?$AAu?$AAr?$AAc?$AAe?$AA_?$AAs?$AAv?$AAn?$AA2?$AA5?$AA6@ 00447ba8     UIMenu.obj
 0002:00003c44       ??_C@_1BA@FHJEPKPL@?$AAc?$AAh?$AAe?$AAc?$AAk?$AAe?$AAd?$AA?$AA@ 00447c44     UIMenu.obj
 0002:00003c58       ??_C@_19FKLFLPMF@?$AAt?$AAr?$AAu?$AAe?$AA?$AA@ 00447c58     UIMenu.obj
 0002:00003c64       ??_C@_1BC@HMHBPPNN@?$AAc?$AAh?$AAe?$AAc?$AAk?$AAi?$AAm?$AAg?$AA?$AA@ 00447c64     UIMenu.obj
 0002:00003c80       ??_C@_1BFK@DOOBKMGL@?$AAs?$AAt?$AAd?$AA?3?$AA?3?$AAv?$AAe?$AAc?$AAt?$AAo?$AAr?$AA?$DM?$AAc?$AAl?$AAa?$AAs?$AAs?$AA?5?$AAR?$AAe?$AAc?$AAe?$AAi?$AAv?$AAe?$AAr?$AAI?$AAm?$AAp?$AAl?$AAB?$AAa@ 00447c80     UIMenu.obj
 0002:00003e20       ??_C@_1EI@HGIDLLCM@?$AAv?$AAe?$AAc?$AAt?$AAo?$AAr?$AA?5?$AAe?$AAr?$AAa?$AAs?$AAe?$AA?5?$AAi?$AAt?$AAe?$AAr?$AAa?$AAt?$AAo?$AAr?$AA?5?$AAo?$AAu?$AAt?$AAs?$AAi?$AAd?$AAe?$AA?5?$AAr?$AAa@ 00447e20     UIMenu.obj
 0002:00003e78       ??_C@_1EG@FOHJJHAC@?$AAv?$AAe?$AAc?$AAt?$AAo?$AAr?$AA?5?$AAi?$AAt?$AAe?$AAr?$AAa?$AAt?$AAo?$AAr?$AA?5?$AAn?$AAo?$AAt?$AA?5?$AAd?$AAe?$AAr?$AAe?$AAf?$AAe?$AAr?$AAe?$AAn?$AAc?$AAa?$AAb@ 00447e78     UIMenu.obj
 0002:00003ed0       ??_C@_1BDI@LFPJGKJI@?$AAs?$AAt?$AAd?$AA?3?$AA?3?$AA_?$AAV?$AAe?$AAc?$AAt?$AAo?$AAr?$AA_?$AAc?$AAo?$AAn?$AAs?$AAt?$AA_?$AAi?$AAt?$AAe?$AAr?$AAa?$AAt?$AAo?$AAr?$AA?$DM?$AAc?$AAl?$AAa?$AAs@ 00447ed0     UIMenu.obj
 0002:00004048       ??_C@_1EE@EJDKCLKB@?$AAv?$AAe?$AAc?$AAt?$AAo?$AAr?$AA?5?$AAi?$AAt?$AAe?$AAr?$AAa?$AAt?$AAo?$AAr?$AA?5?$AAn?$AAo?$AAt?$AA?5?$AAi?$AAn?$AAc?$AAr?$AAe?$AAm?$AAe?$AAn?$AAt?$AAa?$AAb?$AAl@ 00448048     UIMenu.obj
 0002:000040a0       ??_C@_1BDK@KIJAMGDH@?$AAs?$AAt?$AAd?$AA?3?$AA?3?$AA_?$AAV?$AAe?$AAc?$AAt?$AAo?$AAr?$AA_?$AAc?$AAo?$AAn?$AAs?$AAt?$AA_?$AAi?$AAt?$AAe?$AAr?$AAa?$AAt?$AAo?$AAr?$AA?$DM?$AAc?$AAl?$AAa?$AAs@ 004480a0     UIMenu.obj
 0002:00004218       ??_C@_1BDI@GPCPNEMM@?$AAs?$AAt?$AAd?$AA?3?$AA?3?$AA_?$AAV?$AAe?$AAc?$AAt?$AAo?$AAr?$AA_?$AAc?$AAo?$AAn?$AAs?$AAt?$AA_?$AAi?$AAt?$AAe?$AAr?$AAa?$AAt?$AAo?$AAr?$AA?$DM?$AAc?$AAl?$AAa?$AAs@ 00448218     UIMenu.obj
 0002:00004390       ??_C@_1BDK@FKJOBKDK@?$AAs?$AAt?$AAd?$AA?3?$AA?3?$AA_?$AAV?$AAe?$AAc?$AAt?$AAo?$AAr?$AA_?$AAc?$AAo?$AAn?$AAs?$AAt?$AA_?$AAi?$AAt?$AAe?$AAr?$AAa?$AAt?$AAo?$AAr?$AA?$DM?$AAc?$AAl?$AAa?$AAs@ 00448390     UIMenu.obj
 0002:00004508       ??_C@_1EE@OEIJAKGE@?$AAv?$AAe?$AAc?$AAt?$AAo?$AAr?$AA?5?$AAi?$AAt?$AAe?$AAr?$AAa?$AAt?$AAo?$AAr?$AA?5?$AAn?$AAo?$AAt?$AA?5?$AAd?$AAe?$AAc?$AAr?$AAe?$AAm?$AAe?$AAn?$AAt?$AAa?$AAb?$AAl@ 00448508     UIMenu.obj
 0002:00004560       ??_C@_1BDK@FLKCHKPG@?$AAs?$AAt?$AAd?$AA?3?$AA?3?$AA_?$AAV?$AAe?$AAc?$AAt?$AAo?$AAr?$AA_?$AAc?$AAo?$AAn?$AAs?$AAt?$AA_?$AAi?$AAt?$AAe?$AAr?$AAa?$AAt?$AAo?$AAr?$AA?$DM?$AAc?$AAl?$AAa?$AAs@ 00448560     UIMenu.obj
 0002:000046d8       ??_C@_1DM@HINDPMBP@?$AAv?$AAe?$AAc?$AAt?$AAo?$AAr?$AA?5?$AAi?$AAt?$AAe?$AAr?$AAa?$AAt?$AAo?$AAr?$AAs?$AA?5?$AAi?$AAn?$AAc?$AAo?$AAm?$AAp?$AAa?$AAt?$AAi?$AAb?$AAl?$AAe?$AA?$AA@ 004486d8     UIMenu.obj
 0002:00004720       ??_C@_1BDC@JKBPBGAO@?$AAs?$AAt?$AAd?$AA?3?$AA?3?$AA_?$AAV?$AAe?$AAc?$AAt?$AAo?$AAr?$AA_?$AAc?$AAo?$AAn?$AAs?$AAt?$AA_?$AAi?$AAt?$AAe?$AAr?$AAa?$AAt?$AAo?$AAr?$AA?$DM?$AAc?$AAl?$AAa?$AAs@ 00448720     UIMenu.obj
 0002:00004890       ??_C@_1BDC@MHGMAEOP@?$AAs?$AAt?$AAd?$AA?3?$AA?3?$AA_?$AAV?$AAe?$AAc?$AAt?$AAo?$AAr?$AA_?$AAc?$AAo?$AAn?$AAs?$AAt?$AA_?$AAi?$AAt?$AAe?$AAr?$AAa?$AAt?$AAo?$AAr?$AA?$DM?$AAc?$AAl?$AAa?$AAs@ 00448890     UIMenu.obj
 0002:00004a00       ??_C@_1BM@GLLFNEEF@?$AAS?$AAh?$AAe?$AAl?$AAl?$AA_?$AAT?$AAr?$AAa?$AAy?$AAW?$AAn?$AAd?$AA?$AA@ 00448a00     Utils.obj
 0002:00004a24       ??_C@_1M@CKOFOPMN@?$AA?$CG?$AAa?$AAm?$AAp?$AA?$DL?$AA?$AA@ 00448a24     Utils.obj
 0002:00004a34       ??_C@_13FLOCNAAB@?$AA?$CG?$AA?$AA@ 00448a34     Utils.obj
 0002:00004a38       ??_C@_1M@NIFBICAA@?$AA?$CG?$AA?$CD?$AA3?$AA9?$AA?$DL?$AA?$AA@ 00448a38     Utils.obj
 0002:00004a48       ??_C@_13ODFOLHGE@?$AA?8?$AA?$AA@ 00448a48     Utils.obj
 0002:00004a4c       ??_C@_1O@KDPLEHB@?$AA?$CG?$AAq?$AAu?$AAo?$AAt?$AA?$DL?$AA?$AA@ 00448a4c     Utils.obj
 0002:00004a5c       ??_C@_13NEIAEHFG@?$AA?$CC?$AA?$AA@ 00448a5c     Utils.obj
 0002:00004a60       ??_C@_19GOOLGBJN@?$AA?$CG?$AAl?$AAt?$AA?$DL?$AA?$AA@ 00448a60     Utils.obj
 0002:00004a6c       ??_C@_13GEEGGHPK@?$AA?$DM?$AA?$AA@ 00448a6c     Utils.obj
 0002:00004a70       ??_C@_19DDIBHNML@?$AA?$CG?$AAg?$AAt?$AA?$DL?$AA?$AA@ 00448a70     Utils.obj
 0002:00004a7c       ??_C@_13MOEPKPHB@?$AA?$DO?$AA?$AA@ 00448a7c     Utils.obj
 0002:00004a80       ??_C@_1O@BEEDKBP@?$AA?$CG?$AAn?$AAb?$AAs?$AAp?$AA?$DL?$AA?$AA@ 00448a80     Utils.obj
 0002:00004a90       ??_C@_13HOIJIPNN@?$AA?5?$AA?$AA@ 00448a90     Utils.obj
 0002:00004a94       ??_C@_0BC@NPBLIDJ@DllRegisterServer?$AA@ 00448a94     Utils.obj
 0002:00004aac       ??_C@_0BE@IIFJAPHG@DllUnregisterServer?$AA@ 00448aac     Utils.obj
 0002:00004ac8       ??_C@_1BOI@OCMBMPPD@?$AAs?$AAt?$AAd?$AA?3?$AA?3?$AAv?$AAe?$AAc?$AAt?$AAo?$AAr?$AA?$DM?$AAc?$AAl?$AAa?$AAs?$AAs?$AA?5?$AAs?$AAt?$AAd?$AA?3?$AA?3?$AAb?$AAa?$AAs?$AAi?$AAc?$AA_?$AAs?$AAt?$AAr@ 00448ac8     Utils.obj
 0002:00004d18       ??_7INotifyUI@DuiLib@@6B@  00448d18     win_impl_base.obj
 0002:00004d24       ??_7IMessageFilterUI@DuiLib@@6B@ 00448d24     win_impl_base.obj
 0002:00004d30       ??_7WindowImplBase@@6BCWindowWnd@DuiLib@@@ 00448d30     win_impl_base.obj
 0002:00004dbc       ??_7WindowImplBase@@6BINotifyUI@DuiLib@@@ 00448dbc     win_impl_base.obj
 0002:00004dc8       ??_7WindowImplBase@@6BIMessageFilterUI@DuiLib@@@ 00448dc8     win_impl_base.obj
 0002:00004dd4       ??_7WindowImplBase@@6BIDialogBuilderCallback@DuiLib@@@ 00448dd4     win_impl_base.obj
 0002:00004ddc       __GUID_f6d90f11_9c73_11d3_b32e_00c04f990bb4 00448ddc     XmlDocument.obj
 0002:00004df0       _GUID_NULL                 00448df0     uuid:cguid_i.obj
 0002:00004e00       _CATID_MARSHALER           00448e00     uuid:cguid_i.obj
 0002:00004e10       _IID_IRpcChannel           00448e10     uuid:cguid_i.obj
 0002:00004e20       _IID_IRpcStub              00448e20     uuid:cguid_i.obj
 0002:00004e30       _IID_IStubManager          00448e30     uuid:cguid_i.obj
 0002:00004e40       _IID_IRpcProxy             00448e40     uuid:cguid_i.obj
 0002:00004e50       _IID_IProxyManager         00448e50     uuid:cguid_i.obj
 0002:00004e60       _IID_IPSFactory            00448e60     uuid:cguid_i.obj
 0002:00004e70       _IID_IInternalMoniker      00448e70     uuid:cguid_i.obj
 0002:00004e80       _IID_IDfReserved1          00448e80     uuid:cguid_i.obj
 0002:00004e90       _IID_IDfReserved2          00448e90     uuid:cguid_i.obj
 0002:00004ea0       _IID_IDfReserved3          00448ea0     uuid:cguid_i.obj
 0002:00004eb0       _CLSID_StdMarshal          00448eb0     uuid:cguid_i.obj
 0002:00004ec0       _IID_IStub                 00448ec0     uuid:cguid_i.obj
 0002:00004ed0       _IID_IProxy                00448ed0     uuid:cguid_i.obj
 0002:00004ee0       _IID_IEnumGeneric          00448ee0     uuid:cguid_i.obj
 0002:00004ef0       _IID_IEnumHolder           00448ef0     uuid:cguid_i.obj
 0002:00004f00       _IID_IEnumCallback         00448f00     uuid:cguid_i.obj
 0002:00004f10       _IID_IOleManager           00448f10     uuid:cguid_i.obj
 0002:00004f20       _IID_IOlePresObj           00448f20     uuid:cguid_i.obj
 0002:00004f30       _IID_IDebug                00448f30     uuid:cguid_i.obj
 0002:00004f40       _IID_IDebugStream          00448f40     uuid:cguid_i.obj
 0002:00004f50       _CLSID_PSGenObject         00448f50     uuid:cguid_i.obj
 0002:00004f60       _CLSID_PSClientSite        00448f60     uuid:cguid_i.obj
 0002:00004f70       _CLSID_PSClassObject       00448f70     uuid:cguid_i.obj
 0002:00004f80       _CLSID_PSInPlaceActive     00448f80     uuid:cguid_i.obj
 0002:00004f90       _CLSID_PSInPlaceFrame      00448f90     uuid:cguid_i.obj
 0002:00004fa0       _CLSID_PSDragDrop          00448fa0     uuid:cguid_i.obj
 0002:00004fb0       _CLSID_PSBindCtx           00448fb0     uuid:cguid_i.obj
 0002:00004fc0       _CLSID_PSEnumerators       00448fc0     uuid:cguid_i.obj
 0002:00004fd0       _CLSID_StaticMetafile      00448fd0     uuid:cguid_i.obj
 0002:00004fe0       _CLSID_StaticDib           00448fe0     uuid:cguid_i.obj
 0002:00004ff0       _CLSID_Picture_Metafile    00448ff0     uuid:cguid_i.obj
 0002:00005000       _CLSID_Picture_EnhMetafile 00449000     uuid:cguid_i.obj
 0002:00005010       _CLSID_Picture_Dib         00449010     uuid:cguid_i.obj
 0002:00005020       _CLSID_DCOMAccessControl   00449020     uuid:cguid_i.obj
 0002:00005030       _CLSID_StdGlobalInterfaceTable 00449030     uuid:cguid_i.obj
 0002:00005040       _CLSID_ManualResetEvent    00449040     uuid:cguid_i.obj
 0002:00005050       _CLSID_StdEvent            00449050     uuid:cguid_i.obj
 0002:00005060       _CLSID_SynchronizeContainer 00449060     uuid:cguid_i.obj
 0002:00005070       _CLSID_ComBinding          00449070     uuid:cguid_i.obj
 0002:00005080       _CLSID_StdAsyncActManager  00449080     uuid:cguid_i.obj
 0002:00005090       _CLSID_InProcFreeMarshaler 00449090     uuid:cguid_i.obj
 0002:000050a0       _CLSID_RemoteUnknownPSFactory 004490a0     uuid:cguid_i.obj
 0002:000050b0       _IID_IRichEditOle          004490b0     uuid:cguid_i.obj
 0002:000050c0       _IID_IRichEditOleCallback  004490c0     uuid:cguid_i.obj
 0002:000050d0       _CLSID_AllClasses          004490d0     uuid:cguid_i.obj
 0002:000050e0       _CLSID_LocalMachineClasses 004490e0     uuid:cguid_i.obj
 0002:000050f0       _CLSID_CurrentUserClasses  004490f0     uuid:cguid_i.obj
 0002:00005100       _CLSID_AddrControl         00449100     uuid:cguid_i.obj
 0002:00005110       _CLSID_GlobalOptions       00449110     uuid:cguid_i.obj
 0002:00005120       _CLSID_SurrogateManager    00449120     uuid:cguid_i.obj
 0002:00005130       _CLSID_ContextSwitcher     00449130     uuid:cguid_i.obj
 0002:00005140       _CLSID_ActivationStore     00449140     uuid:cguid_i.obj
 0002:00005150       _IID_IPropertyFrame        00449150     uuid:cguid_i.obj
 0002:00005160       _CLSID_CFontPropPage       00449160     uuid:cguid_i.obj
 0002:00005170       _CLSID_CColorPropPage      00449170     uuid:cguid_i.obj
 0002:00005180       _CLSID_CPicturePropPage    00449180     uuid:cguid_i.obj
 0002:00005190       _CLSID_StockFontPage       00449190     uuid:cguid_i.obj
 0002:000051a0       _CLSID_StockColorPage      004491a0     uuid:cguid_i.obj
 0002:000051b0       _CLSID_StockPicturePage    004491b0     uuid:cguid_i.obj
 0002:000051c0       _CLSID_PersistPropset      004491c0     uuid:cguid_i.obj
 0002:000051d0       _CLSID_ConvertVBX          004491d0     uuid:cguid_i.obj
 0002:000051e0       _CLSID_StdFont             004491e0     uuid:cguid_i.obj
 0002:000051f0       _CLSID_StdPicture          004491f0     uuid:cguid_i.obj
 0002:00005200       _GUID_HIMETRIC             00449200     uuid:cguid_i.obj
 0002:00005210       _GUID_COLOR                00449210     uuid:cguid_i.obj
 0002:00005220       _GUID_XPOSPIXEL            00449220     uuid:cguid_i.obj
 0002:00005230       _GUID_YPOSPIXEL            00449230     uuid:cguid_i.obj
 0002:00005240       _GUID_XSIZEPIXEL           00449240     uuid:cguid_i.obj
 0002:00005250       _GUID_YSIZEPIXEL           00449250     uuid:cguid_i.obj
 0002:00005260       _GUID_XPOS                 00449260     uuid:cguid_i.obj
 0002:00005270       _GUID_YPOS                 00449270     uuid:cguid_i.obj
 0002:00005280       _GUID_XSIZE                00449280     uuid:cguid_i.obj
 0002:00005290       _GUID_YSIZE                00449290     uuid:cguid_i.obj
 0002:000052a0       _GUID_TRISTATE             004492a0     uuid:cguid_i.obj
 0002:000052b0       _GUID_OPTIONVALUEEXCLUSIVE 004492b0     uuid:cguid_i.obj
 0002:000052c0       _GUID_CHECKVALUEEXCLUSIVE  004492c0     uuid:cguid_i.obj
 0002:000052d0       _GUID_FONTNAME             004492d0     uuid:cguid_i.obj
 0002:000052e0       _GUID_FONTSIZE             004492e0     uuid:cguid_i.obj
 0002:000052f0       _GUID_FONTBOLD             004492f0     uuid:cguid_i.obj
 0002:00005300       _GUID_FONTITALIC           00449300     uuid:cguid_i.obj
 0002:00005310       _GUID_FONTUNDERSCORE       00449310     uuid:cguid_i.obj
 0002:00005320       _GUID_FONTSTRIKETHROUGH    00449320     uuid:cguid_i.obj
 0002:00005330       _GUID_HANDLE               00449330     uuid:cguid_i.obj
 0002:00005340       _IID_StdOle                00449340     uuid:cguid_i.obj
 0002:00005350       _IID_ICursor               00449350     uuid:cguid_i.obj
 0002:00005360       _IID_ICursorMove           00449360     uuid:cguid_i.obj
 0002:00005370       _IID_ICursorScroll         00449370     uuid:cguid_i.obj
 0002:00005380       _IID_ICursorUpdateARow     00449380     uuid:cguid_i.obj
 0002:00005390       _IID_INotifyDBEvents       00449390     uuid:cguid_i.obj
 0002:000053a0       _IID_ICursorFind           004493a0     uuid:cguid_i.obj
 0002:000053b0       _IID_IEntryID              004493b0     uuid:cguid_i.obj
 0002:000053c0       __GUID_NAMEONLY            004493c0     uuid:cguid_i.obj
 0002:000053d0       __DBBMKGUID                004493d0     uuid:cguid_i.obj
 0002:000053e0       __DBCIDGUID                004493e0     uuid:cguid_i.obj
 0002:000053f0       _IID_IBoundObject          004493f0     uuid:cguid_i.obj
 0002:00005400       _IID_IBoundObjectSite      00449400     uuid:cguid_i.obj
 0002:00005410       _CLSID_GblComponentCategoriesMgr 00449410     uuid:cguid_i.obj
 0002:00005420       _CLSID_ThumbnailFCNHandler 00449420     uuid:cguid_i.obj
 0002:00005430       _CLSID_ThumbnailUpdater    00449430     uuid:cguid_i.obj
 0002:00005440       _IID_ICallbackWithNoReentrancyToApplicationSTA 00449440     uuid:cguid_i.obj
 0002:00005450       _GUID_DEVCLASS_1394        00449450     uuid:cguid_i.obj
 0002:00005460       _GUID_DEVCLASS_1394DEBUG   00449460     uuid:cguid_i.obj
 0002:00005470       _GUID_DEVCLASS_61883       00449470     uuid:cguid_i.obj
 0002:00005480       _GUID_DEVCLASS_ADAPTER     00449480     uuid:cguid_i.obj
 0002:00005490       _GUID_DEVCLASS_APMSUPPORT  00449490     uuid:cguid_i.obj
 0002:000054a0       _GUID_DEVCLASS_AVC         004494a0     uuid:cguid_i.obj
 0002:000054b0       _GUID_DEVCLASS_BATTERY     004494b0     uuid:cguid_i.obj
 0002:000054c0       _GUID_DEVCLASS_BIOMETRIC   004494c0     uuid:cguid_i.obj
 0002:000054d0       _GUID_DEVCLASS_BLUETOOTH   004494d0     uuid:cguid_i.obj
 0002:000054e0       _GUID_DEVCLASS_CDROM       004494e0     uuid:cguid_i.obj
 0002:000054f0       _GUID_DEVCLASS_COMPUTER    004494f0     uuid:cguid_i.obj
 0002:00005500       _GUID_DEVCLASS_DECODER     00449500     uuid:cguid_i.obj
 0002:00005510       _GUID_DEVCLASS_DISKDRIVE   00449510     uuid:cguid_i.obj
 0002:00005520       _GUID_DEVCLASS_DISPLAY     00449520     uuid:cguid_i.obj
 0002:00005530       _GUID_DEVCLASS_DOT4        00449530     uuid:cguid_i.obj
 0002:00005540       _GUID_DEVCLASS_DOT4PRINT   00449540     uuid:cguid_i.obj
 0002:00005550       _GUID_DEVCLASS_ENUM1394    00449550     uuid:cguid_i.obj
 0002:00005560       _GUID_DEVCLASS_FDC         00449560     uuid:cguid_i.obj
 0002:00005570       _GUID_DEVCLASS_FLOPPYDISK  00449570     uuid:cguid_i.obj
 0002:00005580       _GUID_DEVCLASS_GPS         00449580     uuid:cguid_i.obj
 0002:00005590       _GUID_DEVCLASS_HDC         00449590     uuid:cguid_i.obj
 0002:000055a0       _GUID_DEVCLASS_HIDCLASS    004495a0     uuid:cguid_i.obj
 0002:000055b0       _GUID_DEVCLASS_IMAGE       004495b0     uuid:cguid_i.obj
 0002:000055c0       _GUID_DEVCLASS_INFINIBAND  004495c0     uuid:cguid_i.obj
 0002:000055d0       _GUID_DEVCLASS_INFRARED    004495d0     uuid:cguid_i.obj
 0002:000055e0       _GUID_DEVCLASS_KEYBOARD    004495e0     uuid:cguid_i.obj
 0002:000055f0       _GUID_DEVCLASS_LEGACYDRIVER 004495f0     uuid:cguid_i.obj
 0002:00005600       _GUID_DEVCLASS_MEDIA       00449600     uuid:cguid_i.obj
 0002:00005610       _GUID_DEVCLASS_MEDIUM_CHANGER 00449610     uuid:cguid_i.obj
 0002:00005620       _GUID_DEVCLASS_MEMORY      00449620     uuid:cguid_i.obj
 0002:00005630       _GUID_DEVCLASS_MODEM       00449630     uuid:cguid_i.obj
 0002:00005640       _GUID_DEVCLASS_MONITOR     00449640     uuid:cguid_i.obj
 0002:00005650       _GUID_DEVCLASS_MOUSE       00449650     uuid:cguid_i.obj
 0002:00005660       _GUID_DEVCLASS_MTD         00449660     uuid:cguid_i.obj
 0002:00005670       _GUID_DEVCLASS_MULTIFUNCTION 00449670     uuid:cguid_i.obj
 0002:00005680       _GUID_DEVCLASS_MULTIPORTSERIAL 00449680     uuid:cguid_i.obj
 0002:00005690       _GUID_DEVCLASS_NET         00449690     uuid:cguid_i.obj
 0002:000056a0       _GUID_DEVCLASS_NETCLIENT   004496a0     uuid:cguid_i.obj
 0002:000056b0       _GUID_DEVCLASS_NETSERVICE  004496b0     uuid:cguid_i.obj
 0002:000056c0       _GUID_DEVCLASS_NETTRANS    004496c0     uuid:cguid_i.obj
 0002:000056d0       _GUID_DEVCLASS_NODRIVER    004496d0     uuid:cguid_i.obj
 0002:000056e0       _GUID_DEVCLASS_PCMCIA      004496e0     uuid:cguid_i.obj
 0002:000056f0       _GUID_DEVCLASS_PNPPRINTERS 004496f0     uuid:cguid_i.obj
 0002:00005700       _GUID_DEVCLASS_PORTS       00449700     uuid:cguid_i.obj
 0002:00005710       _GUID_DEVCLASS_PRINTER     00449710     uuid:cguid_i.obj
 0002:00005720       _GUID_DEVCLASS_PRINTERUPGRADE 00449720     uuid:cguid_i.obj
 0002:00005730       _GUID_DEVCLASS_PROCESSOR   00449730     uuid:cguid_i.obj
 0002:00005740       _GUID_DEVCLASS_SBP2        00449740     uuid:cguid_i.obj
 0002:00005750       _GUID_DEVCLASS_SCSIADAPTER 00449750     uuid:cguid_i.obj
 0002:00005760       _GUID_DEVCLASS_SECURITYACCELERATOR 00449760     uuid:cguid_i.obj
 0002:00005770       _GUID_DEVCLASS_SENSOR      00449770     uuid:cguid_i.obj
 0002:00005780       _GUID_DEVCLASS_SIDESHOW    00449780     uuid:cguid_i.obj
 0002:00005790       _GUID_DEVCLASS_SMARTCARDREADER 00449790     uuid:cguid_i.obj
 0002:000057a0       _GUID_DEVCLASS_SOUND       004497a0     uuid:cguid_i.obj
 0002:000057b0       _GUID_DEVCLASS_SYSTEM      004497b0     uuid:cguid_i.obj
 0002:000057c0       _GUID_DEVCLASS_TAPEDRIVE   004497c0     uuid:cguid_i.obj
 0002:000057d0       _GUID_DEVCLASS_UNKNOWN     004497d0     uuid:cguid_i.obj
 0002:000057e0       _GUID_DEVCLASS_USB         004497e0     uuid:cguid_i.obj
 0002:000057f0       _GUID_DEVCLASS_VOLUME      004497f0     uuid:cguid_i.obj
 0002:00005800       _GUID_DEVCLASS_VOLUMESNAPSHOT 00449800     uuid:cguid_i.obj
 0002:00005810       _GUID_DEVCLASS_WCEUSBS     00449810     uuid:cguid_i.obj
 0002:00005820       _GUID_DEVCLASS_WPD         00449820     uuid:cguid_i.obj
 0002:00005830       _GUID_DEVCLASS_EHSTORAGESILO 00449830     uuid:cguid_i.obj
 0002:00005840       _GUID_DEVCLASS_FIRMWARE    00449840     uuid:cguid_i.obj
 0002:00005850       _GUID_DEVCLASS_EXTENSION   00449850     uuid:cguid_i.obj
 0002:00005860       _GUID_DEVCLASS_FSFILTER_TOP 00449860     uuid:cguid_i.obj
 0002:00005870       _GUID_DEVCLASS_FSFILTER_ACTIVITYMONITOR 00449870     uuid:cguid_i.obj
 0002:00005880       _GUID_DEVCLASS_FSFILTER_UNDELETE 00449880     uuid:cguid_i.obj
 0002:00005890       _GUID_DEVCLASS_FSFILTER_ANTIVIRUS 00449890     uuid:cguid_i.obj
 0002:000058a0       _GUID_DEVCLASS_FSFILTER_REPLICATION 004498a0     uuid:cguid_i.obj
 0002:000058b0       _GUID_DEVCLASS_FSFILTER_CONTINUOUSBACKUP 004498b0     uuid:cguid_i.obj
 0002:000058c0       _GUID_DEVCLASS_FSFILTER_CONTENTSCREENER 004498c0     uuid:cguid_i.obj
 0002:000058d0       _GUID_DEVCLASS_FSFILTER_QUOTAMANAGEMENT 004498d0     uuid:cguid_i.obj
 0002:000058e0       _GUID_DEVCLASS_FSFILTER_SYSTEMRECOVERY 004498e0     uuid:cguid_i.obj
 0002:000058f0       _GUID_DEVCLASS_FSFILTER_CFSMETADATASERVER 004498f0     uuid:cguid_i.obj
 0002:00005900       _GUID_DEVCLASS_FSFILTER_HSM 00449900     uuid:cguid_i.obj
 0002:00005910       _GUID_DEVCLASS_FSFILTER_COMPRESSION 00449910     uuid:cguid_i.obj
 0002:00005920       _GUID_DEVCLASS_FSFILTER_ENCRYPTION 00449920     uuid:cguid_i.obj
 0002:00005930       _GUID_DEVCLASS_FSFILTER_VIRTUALIZATION 00449930     uuid:cguid_i.obj
 0002:00005940       _GUID_DEVCLASS_FSFILTER_PHYSICALQUOTAMANAGEMENT 00449940     uuid:cguid_i.obj
 0002:00005950       _GUID_DEVCLASS_FSFILTER_OPENFILEBACKUP 00449950     uuid:cguid_i.obj
 0002:00005960       _GUID_DEVCLASS_FSFILTER_SECURITYENHANCER 00449960     uuid:cguid_i.obj
 0002:00005970       _GUID_DEVCLASS_FSFILTER_COPYPROTECTION 00449970     uuid:cguid_i.obj
 0002:00005980       _GUID_DEVCLASS_FSFILTER_BOTTOM 00449980     uuid:cguid_i.obj
 0002:00005990       _GUID_DEVCLASS_FSFILTER_SYSTEM 00449990     uuid:cguid_i.obj
 0002:000059a0       _GUID_DEVCLASS_FSFILTER_INFRASTRUCTURE 004499a0     uuid:cguid_i.obj
 0002:000059b0       _GUID_DEVINTERFACE_DISK    004499b0     uuid:cguid_i.obj
 0002:000059c0       _GUID_DEVINTERFACE_CDROM   004499c0     uuid:cguid_i.obj
 0002:000059d0       _GUID_DEVINTERFACE_PARTITION 004499d0     uuid:cguid_i.obj
 0002:000059e0       _GUID_DEVINTERFACE_TAPE    004499e0     uuid:cguid_i.obj
 0002:000059f0       _GUID_DEVINTERFACE_WRITEONCEDISK 004499f0     uuid:cguid_i.obj
 0002:00005a00       _GUID_DEVINTERFACE_VOLUME  00449a00     uuid:cguid_i.obj
 0002:00005a10       _GUID_DEVINTERFACE_MEDIUMCHANGER 00449a10     uuid:cguid_i.obj
 0002:00005a20       _GUID_DEVINTERFACE_FLOPPY  00449a20     uuid:cguid_i.obj
 0002:00005a30       _GUID_DEVINTERFACE_CDCHANGER 00449a30     uuid:cguid_i.obj
 0002:00005a40       _GUID_DEVINTERFACE_STORAGEPORT 00449a40     uuid:cguid_i.obj
 0002:00005a50       _GUID_DEVINTERFACE_VMLUN   00449a50     uuid:cguid_i.obj
 0002:00005a60       _GUID_DEVINTERFACE_SES     00449a60     uuid:cguid_i.obj
 0002:00005a70       _GUID_DEVINTERFACE_HIDDEN_VOLUME 00449a70     uuid:cguid_i.obj
 0002:00005a80       _GUID_DEVINTERFACE_COMPORT 00449a80     uuid:cguid_i.obj
 0002:00005a90       _GUID_DEVINTERFACE_SERENUM_BUS_ENUMERATOR 00449a90     uuid:cguid_i.obj
 0002:00005aa0       _IID_IOleAdviseHolder      00449aa0     uuid:oleidl_i.obj
 0002:00005ab0       _IID_IOleCache             00449ab0     uuid:oleidl_i.obj
 0002:00005ac0       _IID_IOleCache2            00449ac0     uuid:oleidl_i.obj
 0002:00005ad0       _IID_IOleCacheControl      00449ad0     uuid:oleidl_i.obj
 0002:00005ae0       _IID_IParseDisplayName     00449ae0     uuid:oleidl_i.obj
 0002:00005af0       _IID_IOleContainer         00449af0     uuid:oleidl_i.obj
 0002:00005b00       _IID_IOleClientSite        00449b00     uuid:oleidl_i.obj
 0002:00005b10       _IID_IOleObject            00449b10     uuid:oleidl_i.obj
 0002:00005b20       _IID_IOleWindow            00449b20     uuid:oleidl_i.obj
 0002:00005b30       _IID_IOleLink              00449b30     uuid:oleidl_i.obj
 0002:00005b40       _IID_IOleItemContainer     00449b40     uuid:oleidl_i.obj
 0002:00005b50       _IID_IOleInPlaceUIWindow   00449b50     uuid:oleidl_i.obj
 0002:00005b60       _IID_IOleInPlaceActiveObject 00449b60     uuid:oleidl_i.obj
 0002:00005b70       _IID_IOleInPlaceFrame      00449b70     uuid:oleidl_i.obj
 0002:00005b80       _IID_IOleInPlaceObject     00449b80     uuid:oleidl_i.obj
 0002:00005b90       _IID_IOleInPlaceSite       00449b90     uuid:oleidl_i.obj
 0002:00005ba0       _IID_IContinue             00449ba0     uuid:oleidl_i.obj
 0002:00005bb0       _IID_IViewObject           00449bb0     uuid:oleidl_i.obj
 0002:00005bc0       _IID_IViewObject2          00449bc0     uuid:oleidl_i.obj
 0002:00005bd0       _IID_IDropSource           00449bd0     uuid:oleidl_i.obj
 0002:00005be0       _IID_IDropTarget           00449be0     uuid:oleidl_i.obj
 0002:00005bf0       _IID_IDropSourceNotify     00449bf0     uuid:oleidl_i.obj
 0002:00005c00       _IID_IEnumOLEVERB          00449c00     uuid:oleidl_i.obj
 0002:00005c14       ??_7type_info@@6B@         00449c14     MSVCRTD:ti_inst.obj
 0002:00005c18       ??_C@_1MC@KPMPFEII@?$AA?$CI?$AA_?$AA_?$AAo?$AAn?$AAe?$AAx?$AAi?$AAt?$AAb?$AAe?$AAg?$AAi?$AAn?$AA?5?$AA?$CB?$AA?$DN?$AA?5?$AAN?$AAU?$AAL?$AAL?$AA?5?$AA?$CG?$AA?$CG?$AA?5?$AA_?$AA_?$AAo?$AAn?$AAe?$AAx@ 00449c18     MSVCRTD:atonexit.obj
 0002:00005ce0       ??_C@_1FK@IGIDCAPD@?$AAf?$AA?3?$AA?2?$AAd?$AAd?$AA?2?$AAv?$AAc?$AAt?$AAo?$AAo?$AAl?$AAs?$AA?2?$AAc?$AAr?$AAt?$AA?2?$AAc?$AAr?$AAt?$AAw?$AA3?$AA2?$AA?2?$AAd?$AAl?$AAl?$AAs?$AAt?$AAu?$AAf@ 00449ce0     MSVCRTD:atonexit.obj
 0002:00005d3c       ??_C@_0CN@LMJJPMEG@f?3?2dd?2vctools?2crt?2crtw32?2dllstuf@ 00449d3c     MSVCRTD:atonexit.obj
 0002:00005d70       ??_C@_1FA@DALEHHGL@?$AA_?$AA_?$AAn?$AAa?$AAt?$AAi?$AAv?$AAe?$AA_?$AAs?$AAt?$AAa?$AAr?$AAt?$AAu?$AAp?$AA_?$AAs?$AAt?$AAa?$AAt?$AAe?$AA?5?$AA?$DN?$AA?$DN?$AA?5?$AA_?$AA_?$AAi?$AAn?$AAi?$AAt@ 00449d70     MSVCRTD:wcrtexew.obj
 0002:00005dc0       ??_C@_1FG@DKNDLLJO@?$AAf?$AA?3?$AA?2?$AAd?$AAd?$AA?2?$AAv?$AAc?$AAt?$AAo?$AAo?$AAl?$AAs?$AA?2?$AAc?$AAr?$AAt?$AA?2?$AAc?$AAr?$AAt?$AAw?$AA3?$AA2?$AA?2?$AAd?$AAl?$AAl?$AAs?$AAt?$AAu?$AAf@ 00449dc0     MSVCRTD:wcrtexew.obj
 0002:00005eb8       ??_C@_0NN@NGPKDKPD@The?5value?5of?5ESP?5was?5not?5properl@ 00449eb8     MSVCRTD:error.obj
 0002:00005f98       ??_C@_0BBN@GPMLNJCF@A?5cast?5to?5a?5smaller?5data?5type?5ha@ 00449f98     MSVCRTD:error.obj
 0002:000060b8       ??_C@_0BN@FFOINMNJ@Stack?5memory?5was?5corrupted?6?$AN?$AA@ 0044a0b8     MSVCRTD:error.obj
 0002:000060d8       ??_C@_0DG@HKJMLLLP@A?5local?5variable?5was?5used?5before@ 0044a0d8     MSVCRTD:error.obj
 0002:00006110       ??_C@_0CM@NGINOKPC@Stack?5memory?5around?5_alloca?5was?5@ 0044a110     MSVCRTD:error.obj
 0002:0000613c       ??_C@_0BO@GNIAFIKK@Unknown?5Runtime?5Check?5Error?6?$AN?$AA@ 0044a13c     MSVCRTD:error.obj
 0002:00006160       ??_C@_1GM@OLMCBDMB@?$AAR?$AAu?$AAn?$AAt?$AAi?$AAm?$AAe?$AA?5?$AAC?$AAh?$AAe?$AAc?$AAk?$AA?5?$AAE?$AAr?$AAr?$AAo?$AAr?$AA?4?$AA?6?$AA?$AN?$AA?5?$AAU?$AAn?$AAa?$AAb?$AAl?$AAe?$AA?5?$AAt?$AAo@ 0044a160     MSVCRTD:error.obj
 0002:000061d0       ??_C@_1EA@NFKNIFJP@?$AAR?$AAu?$AAn?$AA?9?$AAT?$AAi?$AAm?$AAe?$AA?5?$AAC?$AAh?$AAe?$AAc?$AAk?$AA?5?$AAF?$AAa?$AAi?$AAl?$AAu?$AAr?$AAe?$AA?5?$AA?$CD?$AA?$CF?$AAd?$AA?5?$AA?9?$AA?5?$AA?$CF?$AAs?$AA?$AA@ 0044a1d0     MSVCRTD:error.obj
 0002:00006210       ??_C@_0BB@PFFGGCJP@Unknown?5Filename?$AA@ 0044a210     MSVCRTD:error.obj
 0002:00006224       ??_C@_0BE@GNBOBNCK@Unknown?5Module?5Name?$AA@ 0044a224     MSVCRTD:error.obj
 0002:00006238       ??_C@_0CA@IODNCDPG@Run?9Time?5Check?5Failure?5?$CD?$CFd?5?9?5?$CFs?$AA@ 0044a238     MSVCRTD:error.obj
 0002:00006258       ??_C@_0CG@IAFNJNEE@Stack?5corrupted?5near?5unknown?5var@ 0044a258     MSVCRTD:error.obj
 0002:00006280       ??_C@_05MKKEDADM@?$CF?42X?5?$AA@ 0044a280     MSVCRTD:error.obj
 0002:00006288       ??_C@_1BG@OILDLIOJ@?$AAu?$AAs?$AAe?$AAr?$AA3?$AA2?$AA?4?$AAd?$AAl?$AAl?$AA?$AA@ 0044a288     MSVCRTD:error.obj
 0002:000062a0       ??_C@_09FOPFMPEJ@wsprintfA?$AA@ 0044a2a0     MSVCRTD:error.obj
 0002:000062b0       ??_C@_0EJ@LJKNEOLN@Stack?5area?5around?5_alloca?5memory@ 0044a2b0     MSVCRTD:error.obj
 0002:000062fc       ??_C@_08OMAHNMHJ@?6Data?3?5?$DM?$AA@ 0044a2fc     MSVCRTD:error.obj
 0002:00006308       ??_C@_0CK@DKGBICFE@?6Allocation?5number?5within?5this?5f@ 0044a308     MSVCRTD:error.obj
 0002:00006334       ??_C@_07DFDJCKFN@?6Size?3?5?$AA@ 0044a334     MSVCRTD:error.obj
 0002:0000633c       ??_C@_0N@MHFFIMFG@?6Address?3?50x?$AA@ 0044a33c     MSVCRTD:error.obj
 0002:00006350       ??_C@_0EI@CLEPFNGI@Stack?5area?5around?5_alloca?5memory@ 0044a350     MSVCRTD:error.obj
 0002:00006398       ??_C@_0BC@KIBAILCI@?$CFs?$CFs?$CFp?$CFs?$CFld?$CFs?$CFd?$CFs?$AA@ 0044a398     MSVCRTD:error.obj
 0002:000063ac       ??_C@_01EEMJAFIK@?6?$AA@   0044a3ac     MSVCRTD:error.obj
 0002:000063b0       ??_C@_02LLMPMKNF@?$DO?5?$AA@ 0044a3b0     MSVCRTD:error.obj
 0002:000063b4       ??_C@_08KJEDNCKC@?$CFs?$CFs?$CFs?$CFs?$AA@ 0044a3b4     MSVCRTD:error.obj
 0002:000063c0       ??_C@_0DE@OHJBPMBP@A?5variable?5is?5being?5used?5without@ 0044a3c0     MSVCRTD:error.obj
 0002:00006410       ??_C@_0BJ@HEGAHDFO@Stack?5pointer?5corruption?$AA@ 0044a410     MSVCRTD:userapi.obj
 0002:0000642c       ??_C@_0CK@FEGOIOPB@Cast?5to?5smaller?5type?5causing?5los@ 0044a42c     MSVCRTD:userapi.obj
 0002:00006458       ??_C@_0BI@CIGMDCBH@Stack?5memory?5corruption?$AA@ 0044a458     MSVCRTD:userapi.obj
 0002:00006470       ??_C@_0CK@CNLNOEPB@Local?5variable?5used?5before?5initi@ 0044a470     MSVCRTD:userapi.obj
 0002:0000649c       ??_C@_0BP@OGBCLIBO@Stack?5around?5_alloca?5corrupted?$AA@ 0044a49c     MSVCRTD:userapi.obj
 0002:000064bc       ?ProcessDetach@NativeDll@<CrtImplementationDetails>@@0IB 0044a4bc     MSVCRTD:unhandld.obj
 0002:000064c0       ?ProcessAttach@NativeDll@<CrtImplementationDetails>@@0IB 0044a4c0     MSVCRTD:unhandld.obj
 0002:000064c4       ?ThreadAttach@NativeDll@<CrtImplementationDetails>@@0IB 0044a4c4     MSVCRTD:unhandld.obj
 0002:000064c8       ?ThreadDetach@NativeDll@<CrtImplementationDetails>@@0IB 0044a4c8     MSVCRTD:unhandld.obj
 0002:000064cc       ?ProcessVerifier@NativeDll@<CrtImplementationDetails>@@0IB 0044a4cc     MSVCRTD:unhandld.obj
 0002:000064d0       ??_C@_1FI@JJOJLGLE@?$AAf?$AA?3?$AA?2?$AAd?$AAd?$AA?2?$AAv?$AAc?$AAt?$AAo?$AAo?$AAl?$AAs?$AA?2?$AAc?$AAr?$AAt?$AA?2?$AAc?$AAr?$AAt?$AAw?$AA3?$AA2?$AA?2?$AAs?$AAt?$AAa?$AAr?$AAt?$AAu?$AAp@ 0044a4d0     MSVCRTD:fp8.obj
 0002:00006528       ??_C@_1CK@JMKHCBEI@?$AA_?$AAs?$AAe?$AAt?$AAd?$AAe?$AAf?$AAa?$AAu?$AAl?$AAt?$AAp?$AAr?$AAe?$AAc?$AAi?$AAs?$AAi?$AAo?$AAn?$AA?$AA@ 0044a528     MSVCRTD:fp8.obj
 0002:00006558       ??_C@_1GE@KOCFNGPB@?$AA_?$AAc?$AAo?$AAn?$AAt?$AAr?$AAo?$AAl?$AAf?$AAp?$AA_?$AAs?$AA?$CI?$AA?$CI?$AA?$CI?$AAv?$AAo?$AAi?$AAd?$AA?5?$AA?$CK?$AA?$CJ?$AA0?$AA?$CJ?$AA?0?$AA?5?$AA0?$AAx?$AA0?$AA0?$AA0?$AA1@ 0044a558     MSVCRTD:fp8.obj
 0002:000065bc       ?LocalIdBitWidth@CrossScopeId@CodeViewInfo@@2IB 0044a5bc     MSVCRTD:pdblkup.obj
 0002:000065c0       ?IdScopeBitWidth@CrossScopeId@CodeViewInfo@@2IB 0044a5c0     MSVCRTD:pdblkup.obj
 0002:000065c4       ?StartCrossScopeId@CrossScopeId@CodeViewInfo@@2IB 0044a5c4     MSVCRTD:pdblkup.obj
 0002:000065c8       ?LocalIdMask@CrossScopeId@CodeViewInfo@@2IB 0044a5c8     MSVCRTD:pdblkup.obj
 0002:000065cc       ?ScopeIdMask@CrossScopeId@CodeViewInfo@@2IB 0044a5cc     MSVCRTD:pdblkup.obj
 0002:000065d0       ?MaxLocalId@CrossScopeId@CodeViewInfo@@2IB 0044a5d0     MSVCRTD:pdblkup.obj
 0002:000065d4       ?MaxScopeId@CrossScopeId@CodeViewInfo@@2IB 0044a5d4     MSVCRTD:pdblkup.obj
 0002:00006618       ??_C@_1BK@GAEMIDIL@?$AAA?$AAD?$AAV?$AAA?$AAP?$AAI?$AA3?$AA2?$AA?4?$AAD?$AAL?$AAL?$AA?$AA@ 0044a618     MSVCRTD:pdblkup.obj
 0002:00006634       ??_C@_0O@COHOBMLB@RegOpenKeyExW?$AA@ 0044a634     MSVCRTD:pdblkup.obj
 0002:00006644       ??_C@_0BB@GLNAEDBD@RegQueryValueExW?$AA@ 0044a644     MSVCRTD:pdblkup.obj
 0002:00006658       ??_C@_0M@HLOHPNFA@RegCloseKey?$AA@ 0044a658     MSVCRTD:pdblkup.obj
 0002:00006668       ??_C@_1FM@EGIBBNPP@?$AAS?$AAO?$AAF?$AAT?$AAW?$AAA?$AAR?$AAE?$AA?2?$AAM?$AAi?$AAc?$AAr?$AAo?$AAs?$AAo?$AAf?$AAt?$AA?2?$AAV?$AAi?$AAs?$AAu?$AAa?$AAl?$AAS?$AAt?$AAu?$AAd?$AAi?$AAo?$AA?2@ 0044a668     MSVCRTD:pdblkup.obj
 0002:000066c4       ??_C@_1BG@EABPBLLF@?$AAP?$AAr?$AAo?$AAd?$AAu?$AAc?$AAt?$AAD?$AAi?$AAr?$AA?$AA@ 0044a6c4     MSVCRTD:pdblkup.obj
 0002:000066f8       ??_C@_1BC@EOIMGOME@?$AAM?$AAS?$AAP?$AAD?$AAB?$AA1?$AA2?$AA0?$AA?$AA@ 0044a6f8     MSVCRTD:pdblkup.obj
 0002:0000670c       ??_C@_0BB@KCIACLNC@PDBOpenValidate5?$AA@ 0044a70c     MSVCRTD:pdblkup.obj
 0002:00006720       ??_C@_01KDCPPGHE@r?$AA@    0044a720     MSVCRTD:pdblkup.obj
 0002:00006724       _EncoderImageItems         0044a724     gdiplus:imagingguds.obj
 0002:00006734       _FrameDimensionResolution  0044a734     gdiplus:imagingguds.obj
 0002:00006744       _CodecIImageBytes          0044a744     gdiplus:imagingguds.obj
 0002:00006754       _FrameDimensionPage        0044a754     gdiplus:imagingguds.obj
 0002:00006764       _ImageFormatTIFF           0044a764     gdiplus:imagingguds.obj
 0002:00006774       _EncoderCompression        0044a774     gdiplus:imagingguds.obj
 0002:00006784       _EncoderSaveAsCMYK         0044a784     gdiplus:imagingguds.obj
 0002:00006794       _ImageFormatWMF            0044a794     gdiplus:imagingguds.obj
 0002:000067a4       _ImageFormatEXIF           0044a7a4     gdiplus:imagingguds.obj
 0002:000067b4       _EncoderTransformation     0044a7b4     gdiplus:imagingguds.obj
 0002:000067c4       _EncoderLuminanceTable     0044a7c4     gdiplus:imagingguds.obj
 0002:000067d4       _FrameDimensionTime        0044a7d4     gdiplus:imagingguds.obj
 0002:000067e4       _EncoderVersion            0044a7e4     gdiplus:imagingguds.obj
 0002:000067f4       _ImageFormatUndefined      0044a7f4     gdiplus:imagingguds.obj
 0002:00006804       _ImageFormatPNG            0044a804     gdiplus:imagingguds.obj
 0002:00006814       _EncoderSaveFlag           0044a814     gdiplus:imagingguds.obj
 0002:00006824       _ImageFormatIcon           0044a824     gdiplus:imagingguds.obj
 0002:00006834       _EncoderColorDepth         0044a834     gdiplus:imagingguds.obj
 0002:00006844       _EncoderColorSpace         0044a844     gdiplus:imagingguds.obj
 0002:00006854       _EncoderRenderMethod       0044a854     gdiplus:imagingguds.obj
 0002:00006864       _EncoderQuality            0044a864     gdiplus:imagingguds.obj
 0002:00006874       _ImageFormatBMP            0044a874     gdiplus:imagingguds.obj
 0002:00006884       _EncoderScanMethod         0044a884     gdiplus:imagingguds.obj
 0002:00006894       _ImageFormatEMF            0044a894     gdiplus:imagingguds.obj
 0002:000068a4       _FormatIDJpegAppHeaders    0044a8a4     gdiplus:imagingguds.obj
 0002:000068b4       _ImageFormatMemoryBMP      0044a8b4     gdiplus:imagingguds.obj
 0002:000068c4       _EncoderChrominanceTable   0044a8c4     gdiplus:imagingguds.obj
 0002:000068d4       _ImageFormatJPEG           0044a8d4     gdiplus:imagingguds.obj
 0002:000068e4       _ImageFormatGIF            0044a8e4     gdiplus:imagingguds.obj
 0002:000068f4       _FormatIDImageInformation  0044a8f4     gdiplus:imagingguds.obj
 0002:00006908       __load_config_used         0044a908     MSVCRTD:loadcfg.obj
 0002:000072bc       ??_R4CButtonExUI@DuiLib@@6B@ 0044b2bc     ButtonExUI.obj
 0002:000072d4       ??_R3CButtonExUI@DuiLib@@8 0044b2d4     ButtonExUI.obj
 0002:000072e8       ??_R2CButtonExUI@DuiLib@@8 0044b2e8     ButtonExUI.obj
 0002:000072fc       ??_R1A@?0A@EA@CButtonExUI@DuiLib@@8 0044b2fc     ButtonExUI.obj
 0002:00007320       ??_R1A@?0A@EA@CButtonUI@DuiLib@@8 0044b320     ButtonExUI.obj
 0002:00007344       ??_R3CButtonUI@DuiLib@@8   0044b344     ButtonExUI.obj
 0002:00007358       ??_R2CButtonUI@DuiLib@@8   0044b358     ButtonExUI.obj
 0002:00007368       ??_R1A@?0A@EA@CLabelUI@DuiLib@@8 0044b368     ButtonExUI.obj
 0002:0000738c       ??_R3CLabelUI@DuiLib@@8    0044b38c     ButtonExUI.obj
 0002:000073a0       ??_R2CLabelUI@DuiLib@@8    0044b3a0     ButtonExUI.obj
 0002:000073ac       ??_R1A@?0A@EA@CControlUI@DuiLib@@8 0044b3ac     ButtonExUI.obj
 0002:000073d0       ??_R3CControlUI@DuiLib@@8  0044b3d0     ButtonExUI.obj
 0002:000073e4       ??_R2CControlUI@DuiLib@@8  0044b3e4     ButtonExUI.obj
 0002:000073ec       ??_R4CFaceCtrl@DuiLib@@6B@ 0044b3ec     FaceCtrl.obj
 0002:00007404       ??_R3CFaceCtrl@DuiLib@@8   0044b404     FaceCtrl.obj
 0002:00007418       ??_R2CFaceCtrl@DuiLib@@8   0044b418     FaceCtrl.obj
 0002:00007424       ??_R1A@?0A@EA@CFaceCtrl@DuiLib@@8 0044b424     FaceCtrl.obj
 0002:00007448       ??_R4CFaceSelDlg@@6BCWindowWnd@DuiLib@@@ 0044b448     FaceSelDlg.obj
 0002:00007460       ??_R3CFaceSelDlg@@8        0044b460     FaceSelDlg.obj
 0002:00007474       ??_R2CFaceSelDlg@@8        0044b474     FaceSelDlg.obj
 0002:00007494       ??_R1A@?0A@EA@CFaceSelDlg@@8 0044b494     FaceSelDlg.obj
 0002:000074b8       ??_R1A@?0A@EA@WindowImplBase@@8 0044b4b8     FaceSelDlg.obj
 0002:000074dc       ??_R3WindowImplBase@@8     0044b4dc     FaceSelDlg.obj
 0002:000074f0       ??_R2WindowImplBase@@8     0044b4f0     FaceSelDlg.obj
 0002:0000750c       ??_R1A@?0A@EA@CWindowWnd@DuiLib@@8 0044b50c     FaceSelDlg.obj
 0002:00007530       ??_R3CWindowWnd@DuiLib@@8  0044b530     FaceSelDlg.obj
 0002:00007544       ??_R2CWindowWnd@DuiLib@@8  0044b544     FaceSelDlg.obj
 0002:0000754c       ??_R1BA@?0A@EA@INotifyUI@DuiLib@@8 0044b54c     FaceSelDlg.obj
 0002:00007570       ??_R3INotifyUI@DuiLib@@8   0044b570     FaceSelDlg.obj
 0002:00007584       ??_R2INotifyUI@DuiLib@@8   0044b584     FaceSelDlg.obj
 0002:0000758c       ??_R1A@?0A@EA@INotifyUI@DuiLib@@8 0044b58c     FaceSelDlg.obj
 0002:000075b0       ??_R1BE@?0A@EA@IMessageFilterUI@DuiLib@@8 0044b5b0     FaceSelDlg.obj
 0002:000075d4       ??_R3IMessageFilterUI@DuiLib@@8 0044b5d4     FaceSelDlg.obj
 0002:000075e8       ??_R2IMessageFilterUI@DuiLib@@8 0044b5e8     FaceSelDlg.obj
 0002:000075f0       ??_R1A@?0A@EA@IMessageFilterUI@DuiLib@@8 0044b5f0     FaceSelDlg.obj
 0002:00007614       ??_R1BI@?0A@EA@IDialogBuilderCallback@DuiLib@@8 0044b614     FaceSelDlg.obj
 0002:00007638       ??_R3IDialogBuilderCallback@DuiLib@@8 0044b638     FaceSelDlg.obj
 0002:0000764c       ??_R2IDialogBuilderCallback@DuiLib@@8 0044b64c     FaceSelDlg.obj
 0002:00007654       ??_R1A@?0A@EA@IDialogBuilderCallback@DuiLib@@8 0044b654     FaceSelDlg.obj
 0002:00007678       ??_R4CFaceSelDlg@@6BINotifyUI@DuiLib@@@ 0044b678     FaceSelDlg.obj
 0002:00007690       ??_R4CFaceSelDlg@@6BIMessageFilterUI@DuiLib@@@ 0044b690     FaceSelDlg.obj
 0002:000076a8       ??_R4CFaceSelDlg@@6BIDialogBuilderCallback@DuiLib@@@ 0044b6a8     FaceSelDlg.obj
 0002:000076c0       ??_R13?0A@EA@GdiplusBase@Gdiplus@@8 0044b6c0     GifImage.obj
 0002:000076e4       ??_R3GdiplusBase@Gdiplus@@8 0044b6e4     GifImage.obj
 0002:000076f8       ??_R2GdiplusBase@Gdiplus@@8 0044b6f8     GifImage.obj
 0002:00007700       ??_R1A@?0A@EA@GdiplusBase@Gdiplus@@8 0044b700     GifImage.obj
 0002:00007724       ??_R1A@?0A@EA@Image@Gdiplus@@8 0044b724     GifImage.obj
 0002:00007748       ??_R3Image@Gdiplus@@8      0044b748     GifImage.obj
 0002:0000775c       ??_R2Image@Gdiplus@@8      0044b75c     GifImage.obj
 0002:00007768       ??_R4Image@Gdiplus@@6B@    0044b768     GifImage.obj
 0002:00007780       ??_R4CMainWindow@@6BCWindowWnd@DuiLib@@@ 0044b780     MainWindow.obj
 0002:00007798       ??_R3CMainWindow@@8        0044b798     MainWindow.obj
 0002:000077ac       ??_R2CMainWindow@@8        0044b7ac     MainWindow.obj
 0002:000077cc       ??_R1A@?0A@EA@CMainWindow@@8 0044b7cc     MainWindow.obj
 0002:000077f0       ??_R4CMainWindow@@6BINotifyUI@DuiLib@@@ 0044b7f0     MainWindow.obj
 0002:00007808       ??_R4CMainWindow@@6BIMessageFilterUI@DuiLib@@@ 0044b808     MainWindow.obj
 0002:00007820       ??_R4CMainWindow@@6BIDialogBuilderCallback@DuiLib@@@ 0044b820     MainWindow.obj
 0002:00007838       ??_R4CPicBarDlg@@6BCWindowWnd@DuiLib@@@ 0044b838     PicBarDlg.obj
 0002:00007850       ??_R3CPicBarDlg@@8         0044b850     PicBarDlg.obj
 0002:00007864       ??_R2CPicBarDlg@@8         0044b864     PicBarDlg.obj
 0002:00007884       ??_R1A@?0A@EA@CPicBarDlg@@8 0044b884     PicBarDlg.obj
 0002:000078a8       ??_R4CPicBarDlg@@6BINotifyUI@DuiLib@@@ 0044b8a8     PicBarDlg.obj
 0002:000078c0       ??_R4CPicBarDlg@@6BIMessageFilterUI@DuiLib@@@ 0044b8c0     PicBarDlg.obj
 0002:000078d8       ??_R4CPicBarDlg@@6BIDialogBuilderCallback@DuiLib@@@ 0044b8d8     PicBarDlg.obj
 0002:000078f0       ??_R4error_category@std@@6B@ 0044b8f0     stdafx.obj
 0002:00007908       ??_R3error_category@std@@8 0044b908     stdafx.obj
 0002:0000791c       ??_R2error_category@std@@8 0044b91c     stdafx.obj
 0002:00007924       ??_R1A@?0A@EA@error_category@std@@8 0044b924     stdafx.obj
 0002:00007948       ??_R4_Generic_error_category@std@@6B@ 0044b948     stdafx.obj
 0002:00007960       ??_R3_Generic_error_category@std@@8 0044b960     stdafx.obj
 0002:00007974       ??_R2_Generic_error_category@std@@8 0044b974     stdafx.obj
 0002:00007980       ??_R1A@?0A@EA@_Generic_error_category@std@@8 0044b980     stdafx.obj
 0002:000079a4       ??_R4_Iostream_error_category@std@@6B@ 0044b9a4     stdafx.obj
 0002:000079bc       ??_R3_Iostream_error_category@std@@8 0044b9bc     stdafx.obj
 0002:000079d0       ??_R2_Iostream_error_category@std@@8 0044b9d0     stdafx.obj
 0002:000079e0       ??_R1A@?0A@EA@_Iostream_error_category@std@@8 0044b9e0     stdafx.obj
 0002:00007a04       ??_R4_System_error_category@std@@6B@ 0044ba04     stdafx.obj
 0002:00007a1c       ??_R3_System_error_category@std@@8 0044ba1c     stdafx.obj
 0002:00007a30       ??_R2_System_error_category@std@@8 0044ba30     stdafx.obj
 0002:00007a40       ??_R1A@?0A@EA@_System_error_category@std@@8 0044ba40     stdafx.obj
 0002:00007a64       ??_R4IDialogBuilderCallback@DuiLib@@6B@ 0044ba64     UIMenu.obj
 0002:00007a7c       ??_R4?$ObserverImpl@HUContextMenuParam@DuiLib@@@@6B@ 0044ba7c     UIMenu.obj
 0002:00007a94       ??_R3?$ObserverImpl@HUContextMenuParam@DuiLib@@@@8 0044ba94     UIMenu.obj
 0002:00007aa8       ??_R2?$ObserverImpl@HUContextMenuParam@DuiLib@@@@8 0044baa8     UIMenu.obj
 0002:00007ab4       ??_R1A@?0A@EA@?$ObserverImpl@HUContextMenuParam@DuiLib@@@@8 0044bab4     UIMenu.obj
 0002:00007ad8       ??_R1A@?0A@EA@?$ObserverImplBase@HUContextMenuParam@DuiLib@@@@8 0044bad8     UIMenu.obj
 0002:00007afc       ??_R3?$ObserverImplBase@HUContextMenuParam@DuiLib@@@@8 0044bafc     UIMenu.obj
 0002:00007b10       ??_R2?$ObserverImplBase@HUContextMenuParam@DuiLib@@@@8 0044bb10     UIMenu.obj
 0002:00007b18       ??_R4?$ReceiverImpl@HUContextMenuParam@DuiLib@@@@6B@ 0044bb18     UIMenu.obj
 0002:00007b30       ??_R3?$ReceiverImpl@HUContextMenuParam@DuiLib@@@@8 0044bb30     UIMenu.obj
 0002:00007b44       ??_R2?$ReceiverImpl@HUContextMenuParam@DuiLib@@@@8 0044bb44     UIMenu.obj
 0002:00007b50       ??_R1A@?0A@EA@?$ReceiverImpl@HUContextMenuParam@DuiLib@@@@8 0044bb50     UIMenu.obj
 0002:00007b74       ??_R1A@?0A@EA@?$ReceiverImplBase@HUContextMenuParam@DuiLib@@@@8 0044bb74     UIMenu.obj
 0002:00007b98       ??_R3?$ReceiverImplBase@HUContextMenuParam@DuiLib@@@@8 0044bb98     UIMenu.obj
 0002:00007bac       ??_R2?$ReceiverImplBase@HUContextMenuParam@DuiLib@@@@8 0044bbac     UIMenu.obj
 0002:00007bb4       ??_R4?$ObserverImplBase@HUContextMenuParam@DuiLib@@@@6B@ 0044bbb4     UIMenu.obj
 0002:00007bcc       ??_R4?$ReceiverImplBase@HUContextMenuParam@DuiLib@@@@6B@ 0044bbcc     UIMenu.obj
 0002:00007be4       ??_R4CMenuUI@DuiLib@@6BCControlUI@1@@ 0044bbe4     UIMenu.obj
 0002:00007bfc       ??_R3CMenuUI@DuiLib@@8     0044bbfc     UIMenu.obj
 0002:00007c10       ??_R2CMenuUI@DuiLib@@8     0044bc10     UIMenu.obj
 0002:00007c38       ??_R1A@?0A@EA@CMenuUI@DuiLib@@8 0044bc38     UIMenu.obj
 0002:00007c5c       ??_R1A@?0A@EA@CListUI@DuiLib@@8 0044bc5c     UIMenu.obj
 0002:00007c80       ??_R3CListUI@DuiLib@@8     0044bc80     UIMenu.obj
 0002:00007c94       ??_R2CListUI@DuiLib@@8     0044bc94     UIMenu.obj
 0002:00007cb8       ??_R1A@?0A@EA@CVerticalLayoutUI@DuiLib@@8 0044bcb8     UIMenu.obj
 0002:00007cdc       ??_R3CVerticalLayoutUI@DuiLib@@8 0044bcdc     UIMenu.obj
 0002:00007cf0       ??_R2CVerticalLayoutUI@DuiLib@@8 0044bcf0     UIMenu.obj
 0002:00007d04       ??_R1A@?0A@EA@CContainerUI@DuiLib@@8 0044bd04     UIMenu.obj
 0002:00007d28       ??_R3CContainerUI@DuiLib@@8 0044bd28     UIMenu.obj
 0002:00007d3c       ??_R2CContainerUI@DuiLib@@8 0044bd3c     UIMenu.obj
 0002:00007d4c       ??_R1DIA@?0A@EA@IContainerUI@DuiLib@@8 0044bd4c     UIMenu.obj
 0002:00007d70       ??_R3IContainerUI@DuiLib@@8 0044bd70     UIMenu.obj
 0002:00007d84       ??_R2IContainerUI@DuiLib@@8 0044bd84     UIMenu.obj
 0002:00007d8c       ??_R1A@?0A@EA@IContainerUI@DuiLib@@8 0044bd8c     UIMenu.obj
 0002:00007db0       ??_R1DNE@?0A@EA@IListUI@DuiLib@@8 0044bdb0     UIMenu.obj
 0002:00007dd4       ??_R3IListUI@DuiLib@@8     0044bdd4     UIMenu.obj
 0002:00007de8       ??_R2IListUI@DuiLib@@8     0044bde8     UIMenu.obj
 0002:00007df4       ??_R1A@?0A@EA@IListUI@DuiLib@@8 0044bdf4     UIMenu.obj
 0002:00007e18       ??_R1A@?0A@EA@IListOwnerUI@DuiLib@@8 0044be18     UIMenu.obj
 0002:00007e3c       ??_R3IListOwnerUI@DuiLib@@8 0044be3c     UIMenu.obj
 0002:00007e50       ??_R2IListOwnerUI@DuiLib@@8 0044be50     UIMenu.obj
 0002:00007e58       ??_R1DNE@?0A@EA@IListOwnerUI@DuiLib@@8 0044be58     UIMenu.obj
 0002:00007e7c       ??_R4CMenuUI@DuiLib@@6BIContainerUI@1@@ 0044be7c     UIMenu.obj
 0002:00007e94       ??_R4CMenuUI@DuiLib@@6B@   0044be94     UIMenu.obj
 0002:00007eac       ??_R4CMenuElementUI@DuiLib@@6BCControlUI@1@@ 0044beac     UIMenu.obj
 0002:00007ec4       ??_R3CMenuElementUI@DuiLib@@8 0044bec4     UIMenu.obj
 0002:00007ed8       ??_R2CMenuElementUI@DuiLib@@8 0044bed8     UIMenu.obj
 0002:00007ef8       ??_R1A@?0A@EA@CMenuElementUI@DuiLib@@8 0044bef8     UIMenu.obj
 0002:00007f1c       ??_R1A@?0A@EA@CListContainerElementUI@DuiLib@@8 0044bf1c     UIMenu.obj
 0002:00007f40       ??_R3CListContainerElementUI@DuiLib@@8 0044bf40     UIMenu.obj
 0002:00007f54       ??_R2CListContainerElementUI@DuiLib@@8 0044bf54     UIMenu.obj
 0002:00007f70       ??_R1DLA@?0A@EA@IListItemUI@DuiLib@@8 0044bf70     UIMenu.obj
 0002:00007f94       ??_R3IListItemUI@DuiLib@@8 0044bf94     UIMenu.obj
 0002:00007fa8       ??_R2IListItemUI@DuiLib@@8 0044bfa8     UIMenu.obj
 0002:00007fb0       ??_R1A@?0A@EA@IListItemUI@DuiLib@@8 0044bfb0     UIMenu.obj
 0002:00007fd4       ??_R4CMenuElementUI@DuiLib@@6BIContainerUI@1@@ 0044bfd4     UIMenu.obj
 0002:00007fec       ??_R4CMenuElementUI@DuiLib@@6B@ 0044bfec     UIMenu.obj
 0002:00008004       ??_R4CMenuWnd@DuiLib@@6BCWindowWnd@1@@ 0044c004     UIMenu.obj
 0002:0000801c       ??_R3CMenuWnd@DuiLib@@8    0044c01c     UIMenu.obj
 0002:00008030       ??_R2CMenuWnd@DuiLib@@8    0044c030     UIMenu.obj
 0002:00008044       ??_R1A@?0A@EA@CMenuWnd@DuiLib@@8 0044c044     UIMenu.obj
 0002:00008068       ??_R1BA@?0A@EA@?$ReceiverImpl@HUContextMenuParam@DuiLib@@@@8 0044c068     UIMenu.obj
 0002:0000808c       ??_R1BA@?0A@EA@?$ReceiverImplBase@HUContextMenuParam@DuiLib@@@@8 0044c08c     UIMenu.obj
 0002:000080b0       ??_R4CMenuWnd@DuiLib@@6B?$ReceiverImpl@HUContextMenuParam@DuiLib@@@@@ 0044c0b0     UIMenu.obj
 0002:000080c8       ??_R4CMenuBuilderCallback@DuiLib@@6B@ 0044c0c8     UIMenu.obj
 0002:000080e0       ??_R3CMenuBuilderCallback@DuiLib@@8 0044c0e0     UIMenu.obj
 0002:000080f4       ??_R2CMenuBuilderCallback@DuiLib@@8 0044c0f4     UIMenu.obj
 0002:00008100       ??_R1A@?0A@EA@CMenuBuilderCallback@DuiLib@@8 0044c100     UIMenu.obj
 0002:00008124       ??_R4INotifyUI@DuiLib@@6B@ 0044c124     win_impl_base.obj
 0002:0000813c       ??_R4IMessageFilterUI@DuiLib@@6B@ 0044c13c     win_impl_base.obj
 0002:00008154       ??_R4WindowImplBase@@6BCWindowWnd@DuiLib@@@ 0044c154     win_impl_base.obj
 0002:0000816c       ??_R4WindowImplBase@@6BINotifyUI@DuiLib@@@ 0044c16c     win_impl_base.obj
 0002:00008184       ??_R4WindowImplBase@@6BIMessageFilterUI@DuiLib@@@ 0044c184     win_impl_base.obj
 0002:0000819c       ??_R4WindowImplBase@@6BIDialogBuilderCallback@DuiLib@@@ 0044c19c     win_impl_base.obj
 0002:000081b4       ??_R4type_info@@6B@        0044c1b4     MSVCRTD:ti_inst.obj
 0002:000081c8       ??_R3type_info@@8          0044c1c8     MSVCRTD:ti_inst.obj
 0002:000081d8       ??_R2type_info@@8          0044c1d8     MSVCRTD:ti_inst.obj
 0002:000081e0       ??_R1A@?0A@EA@type_info@@8 0044c1e0     MSVCRTD:ti_inst.obj
 0002:00008370       ___safe_se_handler_table   0044c370     <linker-defined>
 0002:000086c0       ___rtc_iaa                 0044c6c0     MSVCRTD:initsect.obj
 0002:00008910       ___rtc_izz                 0044c910     MSVCRTD:initsect.obj
 0002:00008a14       ___rtc_taa                 0044ca14     MSVCRTD:initsect.obj
 0002:00008c64       ___rtc_tzz                 0044cc64     MSVCRTD:initsect.obj
 0003:00000000       ?CLSID_ImageOle@@3U_GUID@@A 0044f000     MainWindow.obj
 0003:00000014       ?IID_IImageOle@@3U_GUID@@A 0044f014     MainWindow.obj
 0003:00000028       ?IID_IRichEditOleCallback2@@3U_GUID@@A 0044f028     MainWindow.obj
 0003:0000008c       ?__LINE__Var@?1??CreateMenuWnd@CMenuElementUI@DuiLib@@QAEXXZ@4JA 0044f08c     UIMenu.obj
 0003:00000090       ___security_cookie         0044f090     MSVCRTD:gs_cookie.obj
 0003:00000094       ___security_cookie_complement 0044f094     MSVCRTD:gs_cookie.obj
 0003:000000a0       ?_RTC_ErrorLevels@@3PAHA   0044f0a0     MSVCRTD:error.obj
 0003:000000b4       ___defaultmatherr          0044f0b4     MSVCRTD:merr.obj
 0003:000000b8       ___globallocalestatus      0044f0b8     MSVCRTD:xthdloc.obj
 0003:000000bc       ___native_dllmain_reason   0044f0bc     MSVCRTD:natstart.obj
 0003:000001d0       ??_R0?AVCButtonExUI@DuiLib@@@8 0044f1d0     ButtonExUI.obj
 0003:000001f8       ??_R0?AVCButtonUI@DuiLib@@@8 0044f1f8     ButtonExUI.obj
 0003:00000220       ??_R0?AVCLabelUI@DuiLib@@@8 0044f220     ButtonExUI.obj
 0003:00000244       ??_R0?AVCControlUI@DuiLib@@@8 0044f244     ButtonExUI.obj
 0003:0000026c       ??_R0?AVCFaceCtrl@DuiLib@@@8 0044f26c     FaceCtrl.obj
 0003:00000294       ??_R0?AVCFaceSelDlg@@@8    0044f294     FaceSelDlg.obj
 0003:000002b4       ??_R0?AVWindowImplBase@@@8 0044f2b4     FaceSelDlg.obj
 0003:000002d8       ??_R0?AVCWindowWnd@DuiLib@@@8 0044f2d8     FaceSelDlg.obj
 0003:00000300       ??_R0?AVINotifyUI@DuiLib@@@8 0044f300     FaceSelDlg.obj
 0003:00000328       ??_R0?AVIMessageFilterUI@DuiLib@@@8 0044f328     FaceSelDlg.obj
 0003:00000358       ??_R0?AVIDialogBuilderCallback@DuiLib@@@8 0044f358     FaceSelDlg.obj
 0003:0000038c       ??_R0?AVGdiplusBase@Gdiplus@@@8 0044f38c     GifImage.obj
 0003:000003b4       ??_R0?AVImage@Gdiplus@@@8  0044f3b4     GifImage.obj
 0003:000003d8       ??_R0?AVCMainWindow@@@8    0044f3d8     MainWindow.obj
 0003:000003f8       ??_R0?AVCPicBarDlg@@@8     0044f3f8     PicBarDlg.obj
 0003:00000418       ??_R0?AVerror_category@std@@@8 0044f418     stdafx.obj
 0003:00000440       ??_R0?AV_Generic_error_category@std@@@8 0044f440     stdafx.obj
 0003:00000474       ??_R0?AV_Iostream_error_category@std@@@8 0044f474     stdafx.obj
 0003:000004a8       ??_R0?AV_System_error_category@std@@@8 0044f4a8     stdafx.obj
 0003:000004dc       ??_R0?AV?$ReceiverImplBase@HUContextMenuParam@DuiLib@@@@@8 0044f4dc     UIMenu.obj
 0003:00000528       ??_R0?AVCMenuWnd@DuiLib@@@8 0044f528     UIMenu.obj
 0003:0000054c       ??_R0?AV?$ObserverImpl@HUContextMenuParam@DuiLib@@@@@8 0044f54c     UIMenu.obj
 0003:00000590       ??_R0?AV?$ObserverImplBase@HUContextMenuParam@DuiLib@@@@@8 0044f590     UIMenu.obj
 0003:000005dc       ??_R0?AV?$ReceiverImpl@HUContextMenuParam@DuiLib@@@@@8 0044f5dc     UIMenu.obj
 0003:00000620       ??_R0?AVCMenuUI@DuiLib@@@8 0044f620     UIMenu.obj
 0003:00000644       ??_R0?AVCListUI@DuiLib@@@8 0044f644     UIMenu.obj
 0003:00000668       ??_R0?AVCVerticalLayoutUI@DuiLib@@@8 0044f668     UIMenu.obj
 0003:00000698       ??_R0?AVCContainerUI@DuiLib@@@8 0044f698     UIMenu.obj
 0003:000006c0       ??_R0?AVIContainerUI@DuiLib@@@8 0044f6c0     UIMenu.obj
 0003:000006e8       ??_R0?AVIListUI@DuiLib@@@8 0044f6e8     UIMenu.obj
 0003:0000070c       ??_R0?AVIListOwnerUI@DuiLib@@@8 0044f70c     UIMenu.obj
 0003:00000734       ??_R0?AVCMenuElementUI@DuiLib@@@8 0044f734     UIMenu.obj
 0003:00000760       ??_R0?AVCListContainerElementUI@DuiLib@@@8 0044f760     UIMenu.obj
 0003:00000798       ??_R0?AVIListItemUI@DuiLib@@@8 0044f798     UIMenu.obj
 0003:000007c0       ??_R0?AVCMenuBuilderCallback@DuiLib@@@8 0044f7c0     UIMenu.obj
 0003:000007f4       ??_R0?AVtype_info@@@8      0044f7f4     MSVCRTD:ti_inst.obj
 0003:00000a94       ?g_buddyFontInfo@@3VCFontInfo@@A 0044fa94     MainWindow.obj
 0003:00000d58       ?g_gdiplusToken@@3KA       0044fd58     RichEditDemo.obj
 0003:00000d80       ?g_gdiplusStartupInput@@3UGdiplusStartupInput@Gdiplus@@A 0044fd80     RichEditDemo.obj
 0003:00000de0       ___@@_PchSym_@00@UnbwfroryUwfroryPhlfixvPhemCFGUwfroryUirxsvwrgwvnlUwvyftUhgwzucOlyq@ADF7FD920B88A6CA 0044fde0     stdafx.obj
 0003:00000de8       ?_Generic_object@?$_Error_objects@H@std@@2V_Generic_error_category@2@A 0044fde8     stdafx.obj
 0003:00000dec       ?_Iostream_object@?$_Error_objects@H@std@@2V_Iostream_error_category@2@A 0044fdec     stdafx.obj
 0003:00000df0       ?_System_object@?$_Error_objects@H@std@@2V_System_error_category@2@A 0044fdf0     stdafx.obj
 0003:00000df4       ?id@?$num_put@DV?$back_insert_iterator@V?$basic_string@DU?$char_traits@D@std@@V?$allocator@D@2@@std@@@std@@@std@@2V0locale@2@A 0044fdf4     stdafx.obj
 0003:00000df8       ?id@?$num_put@_WV?$back_insert_iterator@V?$basic_string@_WU?$char_traits@_W@std@@V?$allocator@_W@2@@std@@@std@@@std@@2V0locale@2@A 0044fdf8     stdafx.obj
 0003:00000dfc       ?s_context_menu_observer@DuiLib@@3V?$ObserverImpl@HUContextMenuParam@DuiLib@@@@A 0044fdfc     UIMenu.obj
 0003:00000ea8       ?resource_zip_buffer_@WindowImplBase@@1PAEA 0044fea8     win_impl_base.obj
 0003:00000ed0       ?wsprintffp@@3P6AHPADPBDZZA 0044fed0     MSVCRTD:error.obj
 0003:00001200       __commode                  00450200     MSVCRTD:xncommod.obj
 0003:00001204       __dowildcard               00450204     MSVCRTD:wildcard.obj
 0003:00001208       __newmode                  00450208     MSVCRTD:_newmode.obj
 0003:0000120c       __fmode                    0045020c     MSVCRTD:xtxtmode.obj
 0003:00001218       ___native_startup_lock     00450218     <common>
 0003:00001228       ___native_startup_state    00450228     <common>
 0003:0000122c       ___dyn_tls_init_callback   0045022c     <common>
 0003:0000123c       ___onexitend               0045023c     <common>
 0003:0000124c       ___onexitbegin             0045024c     <common>
 0004:00000000       __imp__GetSaveFileNameW@4  00451000     comdlg32:COMDLG32.dll
 0004:00000004       __imp__GetOpenFileNameW@4  00451004     comdlg32:COMDLG32.dll
 0004:00000008       __imp__ChooseColorW@4      00451008     comdlg32:COMDLG32.dll
 0004:0000000c       \177COMDLG32_NULL_THUNK_DATA 0045100c     comdlg32:COMDLG32.dll
 0004:00000038       __imp_?Remove@CContainerUI@DuiLib@@UAE_NPAVCControlUI@2@@Z 00451038     DuiLib_ud:DuiLib_ud.dll
 0004:0000003c       __imp_?ProcessScrollBar@CContainerUI@DuiLib@@MAEXUtagRECT@@HH@Z 0045103c     DuiLib_ud:DuiLib_ud.dll
 0004:00000040       __imp_?PaintStatusImage@CControlUI@DuiLib@@UAEXPAUHDC__@@@Z 00451040     DuiLib_ud:DuiLib_ud.dll
 0004:00000044       __imp_?PageUp@CListUI@DuiLib@@UAEXXZ 00451044     DuiLib_ud:DuiLib_ud.dll
 0004:00000048       __imp_?PageUp@CContainerUI@DuiLib@@UAEXXZ 00451048     DuiLib_ud:DuiLib_ud.dll
 0004:0000004c       __imp_?PageRight@CListUI@DuiLib@@UAEXXZ 0045104c     DuiLib_ud:DuiLib_ud.dll
 0004:00000050       __imp_?PageRight@CContainerUI@DuiLib@@UAEXXZ 00451050     DuiLib_ud:DuiLib_ud.dll
 0004:00000054       __imp_?PageLeft@CListUI@DuiLib@@UAEXXZ 00451054     DuiLib_ud:DuiLib_ud.dll
 0004:00000058       __imp_?PageLeft@CContainerUI@DuiLib@@UAEXXZ 00451058     DuiLib_ud:DuiLib_ud.dll
 0004:0000005c       __imp_?PageDown@CListUI@DuiLib@@UAEXXZ 0045105c     DuiLib_ud:DuiLib_ud.dll
 0004:00000060       __imp_?PageDown@CContainerUI@DuiLib@@UAEXXZ 00451060     DuiLib_ud:DuiLib_ud.dll
 0004:00000064       __imp_?LineUp@CListUI@DuiLib@@UAEXXZ 00451064     DuiLib_ud:DuiLib_ud.dll
 0004:00000068       __imp_?LineUp@CContainerUI@DuiLib@@UAEXXZ 00451068     DuiLib_ud:DuiLib_ud.dll
 0004:0000006c       __imp_?LineRight@CListUI@DuiLib@@UAEXXZ 0045106c     DuiLib_ud:DuiLib_ud.dll
 0004:00000070       __imp_?LineRight@CContainerUI@DuiLib@@UAEXXZ 00451070     DuiLib_ud:DuiLib_ud.dll
 0004:00000074       __imp_?LineLeft@CListUI@DuiLib@@UAEXXZ 00451074     DuiLib_ud:DuiLib_ud.dll
 0004:00000078       __imp_?LineLeft@CContainerUI@DuiLib@@UAEXXZ 00451078     DuiLib_ud:DuiLib_ud.dll
 0004:0000007c       __imp_?LineDown@CListUI@DuiLib@@UAEXXZ 0045107c     DuiLib_ud:DuiLib_ud.dll
 0004:00000080       __imp_?LineDown@CContainerUI@DuiLib@@UAEXXZ 00451080     DuiLib_ud:DuiLib_ud.dll
 0004:00000084       __imp_?IsSelected@CListContainerElementUI@DuiLib@@UBE_NXZ 00451084     DuiLib_ud:DuiLib_ud.dll
 0004:00000088       __imp_?IsMouseChildEnabled@CContainerUI@DuiLib@@UBE_NXZ 00451088     DuiLib_ud:DuiLib_ud.dll
 0004:0000008c       __imp_?IsExpanded@CListContainerElementUI@DuiLib@@UBE_NXZ 0045108c     DuiLib_ud:DuiLib_ud.dll
 0004:00000090       __imp_?IsDelayedDestroy@CContainerUI@DuiLib@@UBE_NXZ 00451090     DuiLib_ud:DuiLib_ud.dll
 0004:00000094       __imp_?IsAutoDestroy@CContainerUI@DuiLib@@UBE_NXZ 00451094     DuiLib_ud:DuiLib_ud.dll
 0004:00000098       __imp_?HomeUp@CListUI@DuiLib@@UAEXXZ 00451098     DuiLib_ud:DuiLib_ud.dll
 0004:0000009c       __imp_?HomeUp@CContainerUI@DuiLib@@UAEXXZ 0045109c     DuiLib_ud:DuiLib_ud.dll
 0004:000000a0       __imp_?GetRoot@CPaintManagerUI@DuiLib@@QBEPAVCControlUI@2@XZ 004510a0     DuiLib_ud:DuiLib_ud.dll
 0004:000000a4       __imp_?RemovePreMessageFilter@CPaintManagerUI@DuiLib@@QAE_NPAVIMessageFilterUI@2@@Z 004510a4     DuiLib_ud:DuiLib_ud.dll
 0004:000000a8       __imp_?RemoveAll@CContainerUI@DuiLib@@UAEXXZ 004510a8     DuiLib_ud:DuiLib_ud.dll
 0004:000000ac       __imp_?RemoveNotifier@CPaintManagerUI@DuiLib@@QAE_NPAVINotifyUI@2@@Z 004510ac     DuiLib_ud:DuiLib_ud.dll
 0004:000000b0       __imp_?AddNotifier@CPaintManagerUI@DuiLib@@QAE_NPAVINotifyUI@2@@Z 004510b0     DuiLib_ud:DuiLib_ud.dll
 0004:000000b4       __imp_?ReapObjects@CPaintManagerUI@DuiLib@@QAEXPAVCControlUI@2@@Z 004510b4     DuiLib_ud:DuiLib_ud.dll
 0004:000000b8       __imp_?GetResourcePath@CPaintManagerUI@DuiLib@@SAABVCStdString@2@XZ 004510b8     DuiLib_ud:DuiLib_ud.dll
 0004:000000bc       __imp_?GetRoundCorner@CPaintManagerUI@DuiLib@@QBE?AUtagSIZE@@XZ 004510bc     DuiLib_ud:DuiLib_ud.dll
 0004:000000c0       __imp_?GetCaptionRect@CPaintManagerUI@DuiLib@@QAEAAUtagRECT@@XZ 004510c0     DuiLib_ud:DuiLib_ud.dll
 0004:000000c4       __imp_?GetSizeBox@CPaintManagerUI@DuiLib@@QAEAAUtagRECT@@XZ 004510c4     DuiLib_ud:DuiLib_ud.dll
 0004:000000c8       __imp_??YCStdString@DuiLib@@QAEABV01@ABV01@@Z 004510c8     DuiLib_ud:DuiLib_ud.dll
 0004:000000cc       __imp_??0CStdString@DuiLib@@QAE@ABV01@@Z 004510cc     DuiLib_ud:DuiLib_ud.dll
 0004:000000d0       __imp_?Offset@CRect@DuiLib@@QAEXHH@Z 004510d0     DuiLib_ud:DuiLib_ud.dll
 0004:000000d4       __imp_?SetVisible@CListContainerElementUI@DuiLib@@UAEX_N@Z 004510d4     DuiLib_ud:DuiLib_ud.dll
 0004:000000d8       __imp_?SetVisible@CContainerUI@DuiLib@@UAEX_N@Z 004510d8     DuiLib_ud:DuiLib_ud.dll
 0004:000000dc       __imp_?SetTextCallback@CListUI@DuiLib@@UAEXPAVIListCallbackUI@2@@Z 004510dc     DuiLib_ud:DuiLib_ud.dll
 0004:000000e0       __imp_?SetScrollPos@CListUI@DuiLib@@UAEXUtagSIZE@@@Z 004510e0     DuiLib_ud:DuiLib_ud.dll
 0004:000000e4       __imp_?SetScrollPos@CContainerUI@DuiLib@@UAEXUtagSIZE@@@Z 004510e4     DuiLib_ud:DuiLib_ud.dll
 0004:000000e8       __imp_?SetPos@CListUI@DuiLib@@UAEXUtagRECT@@@Z 004510e8     DuiLib_ud:DuiLib_ud.dll
 0004:000000ec       __imp_?SetPos@CContainerUI@DuiLib@@UAEXUtagRECT@@@Z 004510ec     DuiLib_ud:DuiLib_ud.dll
 0004:000000f0       __imp_?SetOwner@CListContainerElementUI@DuiLib@@UAEXPAVCControlUI@2@@Z 004510f0     DuiLib_ud:DuiLib_ud.dll
 0004:000000f4       __imp_?HomeLeft@CListUI@DuiLib@@UAEXXZ 004510f4     DuiLib_ud:DuiLib_ud.dll
 0004:000000f8       __imp_?HomeLeft@CContainerUI@DuiLib@@UAEXXZ 004510f8     DuiLib_ud:DuiLib_ud.dll
 0004:000000fc       __imp_?GetVerticalScrollBar@CListUI@DuiLib@@UBEPAVCScrollBarUI@2@XZ 004510fc     DuiLib_ud:DuiLib_ud.dll
 0004:00000100       __imp_?GetVerticalScrollBar@CContainerUI@DuiLib@@UBEPAVCScrollBarUI@2@XZ 00451100     DuiLib_ud:DuiLib_ud.dll
 0004:00000104       __imp_?GetTextCallback@CListUI@DuiLib@@UBEPAVIListCallbackUI@2@XZ 00451104     DuiLib_ud:DuiLib_ud.dll
 0004:00000108       __imp_?GetScrollRange@CListUI@DuiLib@@UBE?AUtagSIZE@@XZ 00451108     DuiLib_ud:DuiLib_ud.dll
 0004:0000010c       __imp_?GetScrollRange@CContainerUI@DuiLib@@UBE?AUtagSIZE@@XZ 0045110c     DuiLib_ud:DuiLib_ud.dll
 0004:00000110       __imp_?GetScrollPos@CListUI@DuiLib@@UBE?AUtagSIZE@@XZ 00451110     DuiLib_ud:DuiLib_ud.dll
 0004:00000114       __imp_?GetScrollPos@CContainerUI@DuiLib@@UBE?AUtagSIZE@@XZ 00451114     DuiLib_ud:DuiLib_ud.dll
 0004:00000118       __imp_?GetOwner@CListContainerElementUI@DuiLib@@UAEPAVIListOwnerUI@2@XZ 00451118     DuiLib_ud:DuiLib_ud.dll
 0004:0000011c       __imp_?GetListInfo@CListUI@DuiLib@@UAEPAUtagTListInfoUI@2@XZ 0045111c     DuiLib_ud:DuiLib_ud.dll
 0004:00000120       __imp_?RemoveAll@CListUI@DuiLib@@UAEXXZ 00451120     DuiLib_ud:DuiLib_ud.dll
 0004:00000124       __imp_?RemoveAt@CContainerUI@DuiLib@@UAE_NH@Z 00451124     DuiLib_ud:DuiLib_ud.dll
 0004:00000128       __imp_?AddPreMessageFilter@CPaintManagerUI@DuiLib@@QAE_NPAVIMessageFilterUI@2@@Z 00451128     DuiLib_ud:DuiLib_ud.dll
 0004:0000012c       __imp_?DoEvent@CListUI@DuiLib@@UAEXAAUtagTEventUI@2@@Z 0045112c     DuiLib_ud:DuiLib_ud.dll
 0004:00000130       __imp_?SetMouseEnabled@CContainerUI@DuiLib@@UAEX_N@Z 00451130     DuiLib_ud:DuiLib_ud.dll
 0004:00000134       __imp_?SetManager@CContainerUI@DuiLib@@UAEXPAVCPaintManagerUI@2@PAVCControlUI@2@_N@Z 00451134     DuiLib_ud:DuiLib_ud.dll
 0004:00000138       __imp_?SetItemIndex@CContainerUI@DuiLib@@UAE_NPAVCControlUI@2@H@Z 00451138     DuiLib_ud:DuiLib_ud.dll
 0004:0000013c       __imp_?SetInternVisible@CContainerUI@DuiLib@@UAEX_N@Z 0045113c     DuiLib_ud:DuiLib_ud.dll
 0004:00000140       __imp_?SetInset@CContainerUI@DuiLib@@UAEXUtagRECT@@@Z 00451140     DuiLib_ud:DuiLib_ud.dll
 0004:00000144       __imp_?SetIndex@CListContainerElementUI@DuiLib@@UAEXH@Z 00451144     DuiLib_ud:DuiLib_ud.dll
 0004:00000148       __imp_?SetFloatPos@CContainerUI@DuiLib@@MAEXH@Z 00451148     DuiLib_ud:DuiLib_ud.dll
 0004:0000014c       __imp_?SetEnabled@CListContainerElementUI@DuiLib@@UAEX_N@Z 0045114c     DuiLib_ud:DuiLib_ud.dll
 0004:00000150       __imp_?SetDelayedDestroy@CContainerUI@DuiLib@@UAEX_N@Z 00451150     DuiLib_ud:DuiLib_ud.dll
 0004:00000154       __imp_?SetChildPadding@CListUI@DuiLib@@UAEXH@Z 00451154     DuiLib_ud:DuiLib_ud.dll
 0004:00000158       __imp_?SetChildPadding@CContainerUI@DuiLib@@UAEXH@Z 00451158     DuiLib_ud:DuiLib_ud.dll
 0004:0000015c       __imp_?SetAutoDestroy@CContainerUI@DuiLib@@UAEX_N@Z 0045115c     DuiLib_ud:DuiLib_ud.dll
 0004:00000160       __imp_?SelectItem@CListUI@DuiLib@@UAE_NH_N@Z 00451160     DuiLib_ud:DuiLib_ud.dll
 0004:00000164       __imp_?Select@CListContainerElementUI@DuiLib@@UAE_N_N@Z 00451164     DuiLib_ud:DuiLib_ud.dll
 0004:00000168       __imp_??0CStdString@DuiLib@@QAE@XZ 00451168     DuiLib_ud:DuiLib_ud.dll
 0004:0000016c       __imp_??1CStdString@DuiLib@@QAE@XZ 0045116c     DuiLib_ud:DuiLib_ud.dll
 0004:00000170       __imp_?Empty@CStdString@DuiLib@@QAEXXZ 00451170     DuiLib_ud:DuiLib_ud.dll
 0004:00000174       __imp_?IsEmpty@CStdString@DuiLib@@QBE_NXZ 00451174     DuiLib_ud:DuiLib_ud.dll
 0004:00000178       __imp_??BCStdString@DuiLib@@QBEPB_WXZ 00451178     DuiLib_ud:DuiLib_ud.dll
 0004:0000017c       __imp_??4CStdString@DuiLib@@QAEABV01@PB_W@Z 0045117c     DuiLib_ud:DuiLib_ud.dll
 0004:00000180       __imp_?DrawImage@CControlUI@DuiLib@@QAE_NPAUHDC__@@PB_W1@Z 00451180     DuiLib_ud:DuiLib_ud.dll
 0004:00000184       __imp_?Invalidate@CControlUI@DuiLib@@QAEXXZ 00451184     DuiLib_ud:DuiLib_ud.dll
 0004:00000188       __imp_??0CButtonUI@DuiLib@@QAE@XZ 00451188     DuiLib_ud:DuiLib_ud.dll
 0004:0000018c       __imp_?GetInterface@CButtonUI@DuiLib@@UAEPAXPB_W@Z 0045118c     DuiLib_ud:DuiLib_ud.dll
 0004:00000190       __imp_?SetAttribute@CButtonUI@DuiLib@@UAEXPB_W0@Z 00451190     DuiLib_ud:DuiLib_ud.dll
 0004:00000194       __imp_?PaintStatusImage@CButtonUI@DuiLib@@UAEXPAUHDC__@@@Z 00451194     DuiLib_ud:DuiLib_ud.dll
 0004:00000198       __imp_??1CButtonUI@DuiLib@@UAE@XZ 00451198     DuiLib_ud:DuiLib_ud.dll
 0004:0000019c       __imp_?Activate@CButtonUI@DuiLib@@UAE_NXZ 0045119c     DuiLib_ud:DuiLib_ud.dll
 0004:000001a0       __imp_?DoEvent@CButtonUI@DuiLib@@UAEXAAUtagTEventUI@2@@Z 004511a0     DuiLib_ud:DuiLib_ud.dll
 0004:000001a4       __imp_?DoInit@CControlUI@DuiLib@@UAEXXZ 004511a4     DuiLib_ud:DuiLib_ud.dll
 0004:000001a8       __imp_?DoPaint@CControlUI@DuiLib@@UAEXPAUHDC__@@ABUtagRECT@@@Z 004511a8     DuiLib_ud:DuiLib_ud.dll
 0004:000001ac       __imp_?DoPostPaint@CControlUI@DuiLib@@UAEXPAUHDC__@@ABUtagRECT@@@Z 004511ac     DuiLib_ud:DuiLib_ud.dll
 0004:000001b0       __imp_?EstimateSize@CButtonUI@DuiLib@@UAE?AUtagSIZE@@U3@@Z 004511b0     DuiLib_ud:DuiLib_ud.dll
 0004:000001b4       __imp_?Event@CControlUI@DuiLib@@UAEXAAUtagTEventUI@2@@Z 004511b4     DuiLib_ud:DuiLib_ud.dll
 0004:000001b8       __imp_?FindControl@CControlUI@DuiLib@@UAEPAV12@P6GPAV12@PAV12@PAX@Z1I@Z 004511b8     DuiLib_ud:DuiLib_ud.dll
 0004:000001bc       __imp_?GetControlFlags@CButtonUI@DuiLib@@UBEIXZ 004511bc     DuiLib_ud:DuiLib_ud.dll
 0004:000001c0       __imp_?GetFixedHeight@CControlUI@DuiLib@@UBEHXZ 004511c0     DuiLib_ud:DuiLib_ud.dll
 0004:000001c4       __imp_?GetFixedWidth@CControlUI@DuiLib@@UBEHXZ 004511c4     DuiLib_ud:DuiLib_ud.dll
 0004:000001c8       __imp_?GetFixedXY@CControlUI@DuiLib@@UBE?AUtagSIZE@@XZ 004511c8     DuiLib_ud:DuiLib_ud.dll
 0004:000001cc       __imp_?GetHeight@CControlUI@DuiLib@@UBEHXZ 004511cc     DuiLib_ud:DuiLib_ud.dll
 0004:000001d0       __imp_?GetManager@CControlUI@DuiLib@@UBEPAVCPaintManagerUI@2@XZ 004511d0     DuiLib_ud:DuiLib_ud.dll
 0004:000001d4       __imp_?GetMaxHeight@CControlUI@DuiLib@@UBEHXZ 004511d4     DuiLib_ud:DuiLib_ud.dll
 0004:000001d8       __imp_?GetMaxWidth@CControlUI@DuiLib@@UBEHXZ 004511d8     DuiLib_ud:DuiLib_ud.dll
 0004:000001dc       __imp_?GetMinHeight@CControlUI@DuiLib@@UBEHXZ 004511dc     DuiLib_ud:DuiLib_ud.dll
 0004:000001e0       __imp_?GetMinWidth@CControlUI@DuiLib@@UBEHXZ 004511e0     DuiLib_ud:DuiLib_ud.dll
 0004:000001e4       __imp_?GetName@CControlUI@DuiLib@@UBE?AVCStdString@2@XZ 004511e4     DuiLib_ud:DuiLib_ud.dll
 0004:000001e8       __imp_?GetPadding@CControlUI@DuiLib@@UBE?AUtagRECT@@XZ 004511e8     DuiLib_ud:DuiLib_ud.dll
 0004:000001ec       __imp_?GetParent@CControlUI@DuiLib@@UBEPAV12@XZ 004511ec     DuiLib_ud:DuiLib_ud.dll
 0004:000001f0       __imp_?GetPos@CControlUI@DuiLib@@UBEABUtagRECT@@XZ 004511f0     DuiLib_ud:DuiLib_ud.dll
 0004:000001f4       __imp_?GetRelativePos@CControlUI@DuiLib@@UBE?AUtagTRelativePosUI@2@XZ 004511f4     DuiLib_ud:DuiLib_ud.dll
 0004:000001f8       __imp_?GetShortcut@CControlUI@DuiLib@@UBE_WXZ 004511f8     DuiLib_ud:DuiLib_ud.dll
 0004:000001fc       __imp_?GetTag@CControlUI@DuiLib@@UBEIXZ 004511fc     DuiLib_ud:DuiLib_ud.dll
 0004:00000200       __imp_?GetText@CControlUI@DuiLib@@UBE?AVCStdString@2@XZ 00451200     DuiLib_ud:DuiLib_ud.dll
 0004:00000204       __imp_?GetToolTip@CControlUI@DuiLib@@UBE?AVCStdString@2@XZ 00451204     DuiLib_ud:DuiLib_ud.dll
 0004:00000208       __imp_?GetUserData@CControlUI@DuiLib@@UAEABVCStdString@2@XZ 00451208     DuiLib_ud:DuiLib_ud.dll
 0004:0000020c       __imp_?GetWidth@CControlUI@DuiLib@@UBEHXZ 0045120c     DuiLib_ud:DuiLib_ud.dll
 0004:00000210       __imp_?GetX@CControlUI@DuiLib@@UBEHXZ 00451210     DuiLib_ud:DuiLib_ud.dll
 0004:00000214       __imp_?GetY@CControlUI@DuiLib@@UBEHXZ 00451214     DuiLib_ud:DuiLib_ud.dll
 0004:00000218       __imp_?Init@CControlUI@DuiLib@@UAEXXZ 00451218     DuiLib_ud:DuiLib_ud.dll
 0004:0000021c       __imp_?IsContextMenuUsed@CControlUI@DuiLib@@UBE_NXZ 0045121c     DuiLib_ud:DuiLib_ud.dll
 0004:00000220       __imp_?IsEnabled@CControlUI@DuiLib@@UBE_NXZ 00451220     DuiLib_ud:DuiLib_ud.dll
 0004:00000224       __imp_?IsFloat@CControlUI@DuiLib@@UBE_NXZ 00451224     DuiLib_ud:DuiLib_ud.dll
 0004:00000228       __imp_?IsFocused@CControlUI@DuiLib@@UBE_NXZ 00451228     DuiLib_ud:DuiLib_ud.dll
 0004:0000022c       __imp_?IsKeyboardEnabled@CControlUI@DuiLib@@UBE_NXZ 0045122c     DuiLib_ud:DuiLib_ud.dll
 0004:00000230       __imp_?IsMouseEnabled@CControlUI@DuiLib@@UBE_NXZ 00451230     DuiLib_ud:DuiLib_ud.dll
 0004:00000234       __imp_?IsRelativePos@CControlUI@DuiLib@@UBE_NXZ 00451234     DuiLib_ud:DuiLib_ud.dll
 0004:00000238       __imp_?IsVisible@CControlUI@DuiLib@@UBE_NXZ 00451238     DuiLib_ud:DuiLib_ud.dll
 0004:0000023c       __imp_?PaintBkColor@CControlUI@DuiLib@@UAEXPAUHDC__@@@Z 0045123c     DuiLib_ud:DuiLib_ud.dll
 0004:00000240       __imp_?PaintBkImage@CControlUI@DuiLib@@UAEXPAUHDC__@@@Z 00451240     DuiLib_ud:DuiLib_ud.dll
 0004:00000244       __imp_?PaintBorder@CControlUI@DuiLib@@UAEXPAUHDC__@@@Z 00451244     DuiLib_ud:DuiLib_ud.dll
 0004:00000248       __imp_?PaintText@CButtonUI@DuiLib@@UAEXPAUHDC__@@@Z 00451248     DuiLib_ud:DuiLib_ud.dll
 0004:0000024c       __imp_?SetContextMenuUsed@CControlUI@DuiLib@@UAEX_N@Z 0045124c     DuiLib_ud:DuiLib_ud.dll
 0004:00000250       __imp_?SetEnabled@CButtonUI@DuiLib@@UAEX_N@Z 00451250     DuiLib_ud:DuiLib_ud.dll
 0004:00000254       __imp_?SetFixedHeight@CControlUI@DuiLib@@UAEXH@Z 00451254     DuiLib_ud:DuiLib_ud.dll
 0004:00000258       __imp_?SetFixedWidth@CControlUI@DuiLib@@UAEXH@Z 00451258     DuiLib_ud:DuiLib_ud.dll
 0004:0000025c       __imp_?SetFixedXY@CControlUI@DuiLib@@UAEXUtagSIZE@@@Z 0045125c     DuiLib_ud:DuiLib_ud.dll
 0004:00000260       __imp_?SetFloat@CControlUI@DuiLib@@UAEX_N@Z 00451260     DuiLib_ud:DuiLib_ud.dll
 0004:00000264       __imp_?SetFocus@CControlUI@DuiLib@@UAEXXZ 00451264     DuiLib_ud:DuiLib_ud.dll
 0004:00000268       __imp_?SetInternVisible@CControlUI@DuiLib@@UAEX_N@Z 00451268     DuiLib_ud:DuiLib_ud.dll
 0004:0000026c       __imp_?SetKeyboardEnabled@CControlUI@DuiLib@@UAEX_N@Z 0045126c     DuiLib_ud:DuiLib_ud.dll
 0004:00000270       __imp_?SetManager@CControlUI@DuiLib@@UAEXPAVCPaintManagerUI@2@PAV12@_N@Z 00451270     DuiLib_ud:DuiLib_ud.dll
 0004:00000274       __imp_?SetMaxHeight@CControlUI@DuiLib@@UAEXH@Z 00451274     DuiLib_ud:DuiLib_ud.dll
 0004:00000278       __imp_?SetMaxWidth@CControlUI@DuiLib@@UAEXH@Z 00451278     DuiLib_ud:DuiLib_ud.dll
 0004:0000027c       __imp_?SetMinHeight@CControlUI@DuiLib@@UAEXH@Z 0045127c     DuiLib_ud:DuiLib_ud.dll
 0004:00000280       __imp_?SetMinWidth@CControlUI@DuiLib@@UAEXH@Z 00451280     DuiLib_ud:DuiLib_ud.dll
 0004:00000284       __imp_?SetMouseEnabled@CControlUI@DuiLib@@UAEX_N@Z 00451284     DuiLib_ud:DuiLib_ud.dll
 0004:00000288       __imp_?SetName@CControlUI@DuiLib@@UAEXPB_W@Z 00451288     DuiLib_ud:DuiLib_ud.dll
 0004:0000028c       __imp_?SetPadding@CControlUI@DuiLib@@UAEXUtagRECT@@@Z 0045128c     DuiLib_ud:DuiLib_ud.dll
 0004:00000290       __imp_?SetPos@CControlUI@DuiLib@@UAEXUtagRECT@@@Z 00451290     DuiLib_ud:DuiLib_ud.dll
 0004:00000294       __imp_?SetRelativeParentSize@CControlUI@DuiLib@@UAEXUtagSIZE@@@Z 00451294     DuiLib_ud:DuiLib_ud.dll
 0004:00000298       __imp_?SetRelativePos@CControlUI@DuiLib@@UAEXUtagSIZE@@0@Z 00451298     DuiLib_ud:DuiLib_ud.dll
 0004:0000029c       __imp_?SetShortcut@CControlUI@DuiLib@@UAEX_W@Z 0045129c     DuiLib_ud:DuiLib_ud.dll
 0004:000002a0       __imp_?SetTag@CControlUI@DuiLib@@UAEXI@Z 004512a0     DuiLib_ud:DuiLib_ud.dll
 0004:000002a4       __imp_?SetText@CControlUI@DuiLib@@UAEXPB_W@Z 004512a4     DuiLib_ud:DuiLib_ud.dll
 0004:000002a8       __imp_?SetToolTip@CControlUI@DuiLib@@UAEXPB_W@Z 004512a8     DuiLib_ud:DuiLib_ud.dll
 0004:000002ac       __imp_?SetUserData@CControlUI@DuiLib@@UAEXPB_W@Z 004512ac     DuiLib_ud:DuiLib_ud.dll
 0004:000002b0       __imp_?SetVisible@CControlUI@DuiLib@@UAEX_N@Z 004512b0     DuiLib_ud:DuiLib_ud.dll
 0004:000002b4       __imp_?GetTooltipWindow@CPaintManagerUI@DuiLib@@QBEPAUHWND__@@XZ 004512b4     DuiLib_ud:DuiLib_ud.dll
 0004:000002b8       __imp_?SetTimer@CPaintManagerUI@DuiLib@@QAE_NPAVCControlUI@2@II@Z 004512b8     DuiLib_ud:DuiLib_ud.dll
 0004:000002bc       __imp_?KillTimer@CPaintManagerUI@DuiLib@@QAE_NPAVCControlUI@2@I@Z 004512bc     DuiLib_ud:DuiLib_ud.dll
 0004:000002c0       __imp_?SendNotify@CPaintManagerUI@DuiLib@@QAEXPAVCControlUI@2@PB_WIJ_N@Z 004512c0     DuiLib_ud:DuiLib_ud.dll
 0004:000002c4       __imp_??0CControlUI@DuiLib@@QAE@XZ 004512c4     DuiLib_ud:DuiLib_ud.dll
 0004:000002c8       __imp_??1CControlUI@DuiLib@@UAE@XZ 004512c8     DuiLib_ud:DuiLib_ud.dll
 0004:000002cc       __imp_?GetInterface@CControlUI@DuiLib@@UAEPAXPB_W@Z 004512cc     DuiLib_ud:DuiLib_ud.dll
 0004:000002d0       __imp_?DoEvent@CControlUI@DuiLib@@UAEXAAUtagTEventUI@2@@Z 004512d0     DuiLib_ud:DuiLib_ud.dll
 0004:000002d4       __imp_?SetAttribute@CControlUI@DuiLib@@UAEXPB_W0@Z 004512d4     DuiLib_ud:DuiLib_ud.dll
 0004:000002d8       __imp_?Activate@CControlUI@DuiLib@@UAE_NXZ 004512d8     DuiLib_ud:DuiLib_ud.dll
 0004:000002dc       __imp_?EstimateSize@CControlUI@DuiLib@@UAE?AUtagSIZE@@U3@@Z 004512dc     DuiLib_ud:DuiLib_ud.dll
 0004:000002e0       __imp_?GetControlFlags@CControlUI@DuiLib@@UBEIXZ 004512e0     DuiLib_ud:DuiLib_ud.dll
 0004:000002e4       __imp_?PaintText@CControlUI@DuiLib@@UAEXPAUHDC__@@@Z 004512e4     DuiLib_ud:DuiLib_ud.dll
 0004:000002e8       __imp_?SetEnabled@CControlUI@DuiLib@@UAEX_N@Z 004512e8     DuiLib_ud:DuiLib_ud.dll
 0004:000002ec       __imp_??0CStdString@DuiLib@@QAE@PB_WH@Z 004512ec     DuiLib_ud:DuiLib_ud.dll
 0004:000002f0       __imp_??HCStdString@DuiLib@@QBE?AV01@PB_W@Z 004512f0     DuiLib_ud:DuiLib_ud.dll
 0004:000002f4       __imp_??8CStdString@DuiLib@@QBE_NPB_W@Z 004512f4     DuiLib_ud:DuiLib_ud.dll
 0004:000002f8       __imp_?GetInstancePath@CPaintManagerUI@DuiLib@@SA?AVCStdString@2@XZ 004512f8     DuiLib_ud:DuiLib_ud.dll
 0004:000002fc       __imp_?FindControl@CPaintManagerUI@DuiLib@@QBEPAVCControlUI@2@PB_W@Z 004512fc     DuiLib_ud:DuiLib_ud.dll
 0004:00000300       __imp_?GetSuperClassName@CWindowWnd@DuiLib@@MBEPB_WXZ 00451300     DuiLib_ud:DuiLib_ud.dll
 0004:00000304       __imp_?GetData@CStdString@DuiLib@@QAEPB_WXZ 00451304     DuiLib_ud:DuiLib_ud.dll
 0004:00000308       __imp_??BCWindowWnd@DuiLib@@QBEPAUHWND__@@XZ 00451308     DuiLib_ud:DuiLib_ud.dll
 0004:0000030c       __imp_?Create@CWindowWnd@DuiLib@@QAEPAUHWND__@@PAU3@PB_WKKHHHHPAUHMENU__@@@Z 0045130c     DuiLib_ud:DuiLib_ud.dll
 0004:00000310       __imp_?Close@CWindowWnd@DuiLib@@QAEXI@Z 00451310     DuiLib_ud:DuiLib_ud.dll
 0004:00000314       __imp_?SendMessageW@CWindowWnd@DuiLib@@QAEJIIJ@Z 00451314     DuiLib_ud:DuiLib_ud.dll
 0004:00000318       __imp_?HandleMessage@CWindowWnd@DuiLib@@MAEJIIJ@Z 00451318     DuiLib_ud:DuiLib_ud.dll
 0004:0000031c       __imp_?FindControl@CPaintManagerUI@DuiLib@@QBEPAVCControlUI@2@UtagPOINT@@@Z 0045131c     DuiLib_ud:DuiLib_ud.dll
 0004:00000320       __imp_?IsSelected@COptionUI@DuiLib@@QBE_NXZ 00451320     DuiLib_ud:DuiLib_ud.dll
 0004:00000324       __imp_?Selected@COptionUI@DuiLib@@QAEX_N@Z 00451324     DuiLib_ud:DuiLib_ud.dll
 0004:00000328       __imp_?SetSel@CRichEditUI@DuiLib@@QAEHJJ@Z 00451328     DuiLib_ud:DuiLib_ud.dll
 0004:0000032c       __imp_?GetSelectionType@CRichEditUI@DuiLib@@QBEGXZ 0045132c     DuiLib_ud:DuiLib_ud.dll
 0004:00000330       __imp_?SetZoom@CRichEditUI@DuiLib@@QAE_NHH@Z 00451330     DuiLib_ud:DuiLib_ud.dll
 0004:00000334       __imp_?SetAutoURLDetect@CRichEditUI@DuiLib@@QAE_N_N@Z 00451334     DuiLib_ud:DuiLib_ud.dll
 0004:00000338       __imp_?Copy@CRichEditUI@DuiLib@@QAEXXZ 00451338     DuiLib_ud:DuiLib_ud.dll
 0004:0000033c       __imp_?Cut@CRichEditUI@DuiLib@@QAEXXZ 0045133c     DuiLib_ud:DuiLib_ud.dll
 0004:00000340       __imp_?GetTxDropTarget@CRichEditUI@DuiLib@@QAEPAUIDropTarget@@XZ 00451340     DuiLib_ud:DuiLib_ud.dll
 0004:00000344       __imp_?GetTextHost@CRichEditUI@DuiLib@@QAEPAVITextHost@@XZ 00451344     DuiLib_ud:DuiLib_ud.dll
 0004:00000348       __imp_?GetTextServices@CRichEditUI@DuiLib@@QAEPAVITextServices@@XZ 00451348     DuiLib_ud:DuiLib_ud.dll
 0004:0000034c       __imp_?SetOleCallback@CRichEditUI@DuiLib@@QAEHPAUIRichEditOleCallback@@@Z 0045134c     DuiLib_ud:DuiLib_ud.dll
 0004:00000350       __imp_?CanPaste@CRichEditUI@DuiLib@@QAEHI@Z 00451350     DuiLib_ud:DuiLib_ud.dll
 0004:00000354       __imp_?PasteSpecial@CRichEditUI@DuiLib@@QAEXIKPAUHMETAFILE__@@@Z 00451354     DuiLib_ud:DuiLib_ud.dll
 0004:00000358       __imp_?ShowWindow@CWindowWnd@DuiLib@@QAEX_N0@Z 00451358     DuiLib_ud:DuiLib_ud.dll
 0004:0000035c       __imp_?CenterWindow@CWindowWnd@DuiLib@@QAEXXZ 0045135c     DuiLib_ud:DuiLib_ud.dll
 0004:00000360       __imp_?SetIcon@CWindowWnd@DuiLib@@QAEXI@Z 00451360     DuiLib_ud:DuiLib_ud.dll
 0004:00000364       __imp_?SetInstance@CPaintManagerUI@DuiLib@@SAXPAUHINSTANCE__@@@Z 00451364     DuiLib_ud:DuiLib_ud.dll
 0004:00000368       __imp_?SetResourcePath@CPaintManagerUI@DuiLib@@SAXPB_W@Z 00451368     DuiLib_ud:DuiLib_ud.dll
 0004:0000036c       __imp_?MessageLoop@CPaintManagerUI@DuiLib@@SAXXZ 0045136c     DuiLib_ud:DuiLib_ud.dll
 0004:00000370       __imp_?Term@CPaintManagerUI@DuiLib@@SAXXZ 00451370     DuiLib_ud:DuiLib_ud.dll
 0004:00000374       __imp_??0CPoint@DuiLib@@QAE@XZ 00451374     DuiLib_ud:DuiLib_ud.dll
 0004:00000378       __imp_??0CPoint@DuiLib@@QAE@ABUtagPOINT@@@Z 00451378     DuiLib_ud:DuiLib_ud.dll
 0004:0000037c       __imp_??0CSize@DuiLib@@QAE@HH@Z 0045137c     DuiLib_ud:DuiLib_ud.dll
 0004:00000380       __imp_??0CRect@DuiLib@@QAE@XZ 00451380     DuiLib_ud:DuiLib_ud.dll
 0004:00000384       __imp_??0CRect@DuiLib@@QAE@ABUtagRECT@@@Z 00451384     DuiLib_ud:DuiLib_ud.dll
 0004:00000388       __imp_?GetWidth@CRect@DuiLib@@QBEHXZ 00451388     DuiLib_ud:DuiLib_ud.dll
 0004:0000038c       __imp_?GetHeight@CRect@DuiLib@@QBEHXZ 0045138c     DuiLib_ud:DuiLib_ud.dll
 0004:00000390       __imp_??0CWindowWnd@DuiLib@@QAE@XZ 00451390     DuiLib_ud:DuiLib_ud.dll
 0004:00000394       __imp_?GetHWND@CWindowWnd@DuiLib@@QBEPAUHWND__@@XZ 00451394     DuiLib_ud:DuiLib_ud.dll
 0004:00000398       __imp_?Create@CWindowWnd@DuiLib@@QAEPAUHWND__@@PAU3@PB_WKKUtagRECT@@PAUHMENU__@@@Z 00451398     DuiLib_ud:DuiLib_ud.dll
 0004:0000039c       __imp_??0CPaintManagerUI@DuiLib@@QAE@XZ 0045139c     DuiLib_ud:DuiLib_ud.dll
 0004:000003a0       __imp_??1CPaintManagerUI@DuiLib@@QAE@XZ 004513a0     DuiLib_ud:DuiLib_ud.dll
 0004:000003a4       __imp_?Init@CPaintManagerUI@DuiLib@@QAEXPAUHWND__@@@Z 004513a4     DuiLib_ud:DuiLib_ud.dll
 0004:000003a8       __imp_?GetPaintDC@CPaintManagerUI@DuiLib@@QBEPAUHDC__@@XZ 004513a8     DuiLib_ud:DuiLib_ud.dll
 0004:000003ac       __imp_?GetPaintWindow@CPaintManagerUI@DuiLib@@QBEPAUHWND__@@XZ 004513ac     DuiLib_ud:DuiLib_ud.dll
 0004:000003b0       __imp_?GetInitSize@CPaintManagerUI@DuiLib@@QAE?AUtagSIZE@@XZ 004513b0     DuiLib_ud:DuiLib_ud.dll
 0004:000003b4       __imp_?SetInitSize@CPaintManagerUI@DuiLib@@QAEXHH@Z 004513b4     DuiLib_ud:DuiLib_ud.dll
 0004:000003b8       __imp_?UseParentResource@CPaintManagerUI@DuiLib@@QAE_NPAV12@@Z 004513b8     DuiLib_ud:DuiLib_ud.dll
 0004:000003bc       __imp_?GetDefaultAttributeList@CPaintManagerUI@DuiLib@@QBEPB_WPB_W@Z 004513bc     DuiLib_ud:DuiLib_ud.dll
 0004:000003c0       __imp_?AttachDialog@CPaintManagerUI@DuiLib@@QAE_NPAVCControlUI@2@@Z 004513c0     DuiLib_ud:DuiLib_ud.dll
 0004:000003c4       __imp_?MessageHandler@CPaintManagerUI@DuiLib@@QAE_NIIJAAJ@Z 004513c4     DuiLib_ud:DuiLib_ud.dll
 0004:000003c8       __imp_?SetBkColor@CControlUI@DuiLib@@QAEXK@Z 004513c8     DuiLib_ud:DuiLib_ud.dll
 0004:000003cc       __imp_?SetBorderColor@CControlUI@DuiLib@@QAEXK@Z 004513cc     DuiLib_ud:DuiLib_ud.dll
 0004:000003d0       __imp_?SetBorderSize@CControlUI@DuiLib@@QAEXH@Z 004513d0     DuiLib_ud:DuiLib_ud.dll
 0004:000003d4       __imp_?ApplyAttributeList@CControlUI@DuiLib@@QAEPAV12@PB_W@Z 004513d4     DuiLib_ud:DuiLib_ud.dll
 0004:000003d8       __imp_?SetMouseChildEnabled@CContainerUI@DuiLib@@UAEX_N@Z 004513d8     DuiLib_ud:DuiLib_ud.dll
 0004:000003dc       __imp_??0CListUI@DuiLib@@QAE@XZ 004513dc     DuiLib_ud:DuiLib_ud.dll
 0004:000003e0       __imp_?GetInterface@CListUI@DuiLib@@UAEPAXPB_W@Z 004513e0     DuiLib_ud:DuiLib_ud.dll
 0004:000003e4       __imp_?GetHeader@CListUI@DuiLib@@UBEPAVCListHeaderUI@2@XZ 004513e4     DuiLib_ud:DuiLib_ud.dll
 0004:000003e8       __imp_?GetItemIndex@CListUI@DuiLib@@UBEHPAVCControlUI@2@@Z 004513e8     DuiLib_ud:DuiLib_ud.dll
 0004:000003ec       __imp_?SetItemIndex@CListUI@DuiLib@@UAE_NPAVCControlUI@2@H@Z 004513ec     DuiLib_ud:DuiLib_ud.dll
 0004:000003f0       __imp_?Add@CListUI@DuiLib@@UAE_NPAVCControlUI@2@@Z 004513f0     DuiLib_ud:DuiLib_ud.dll
 0004:000003f4       __imp_?AddAt@CListUI@DuiLib@@UAE_NPAVCControlUI@2@H@Z 004513f4     DuiLib_ud:DuiLib_ud.dll
 0004:000003f8       __imp_?Remove@CListUI@DuiLib@@UAE_NPAVCControlUI@2@@Z 004513f8     DuiLib_ud:DuiLib_ud.dll
 0004:000003fc       __imp_?GetList@CListUI@DuiLib@@UBEPAVCContainerUI@2@XZ 004513fc     DuiLib_ud:DuiLib_ud.dll
 0004:00000400       __imp_?SetAttribute@CListUI@DuiLib@@UAEXPB_W0@Z 00451400     DuiLib_ud:DuiLib_ud.dll
 0004:00000404       __imp_??1CListUI@DuiLib@@UAE@XZ 00451404     DuiLib_ud:DuiLib_ud.dll
 0004:00000408       __imp_??0CListContainerElementUI@DuiLib@@QAE@XZ 00451408     DuiLib_ud:DuiLib_ud.dll
 0004:0000040c       __imp_?GetInterface@CListContainerElementUI@DuiLib@@UAEPAXPB_W@Z 0045140c     DuiLib_ud:DuiLib_ud.dll
 0004:00000410       __imp_?Invalidate@CListContainerElementUI@DuiLib@@QAEXXZ 00451410     DuiLib_ud:DuiLib_ud.dll
 0004:00000414       __imp_?Activate@CListContainerElementUI@DuiLib@@UAE_NXZ 00451414     DuiLib_ud:DuiLib_ud.dll
 0004:00000418       __imp_?DoEvent@CListContainerElementUI@DuiLib@@UAEXAAUtagTEventUI@2@@Z 00451418     DuiLib_ud:DuiLib_ud.dll
 0004:0000041c       __imp_?SetAttribute@CListContainerElementUI@DuiLib@@UAEXPB_W0@Z 0045141c     DuiLib_ud:DuiLib_ud.dll
 0004:00000420       __imp_?DrawItemBk@CListContainerElementUI@DuiLib@@QAEXPAUHDC__@@ABUtagRECT@@@Z 00451420     DuiLib_ud:DuiLib_ud.dll
 0004:00000424       __imp_??1CListContainerElementUI@DuiLib@@UAE@XZ 00451424     DuiLib_ud:DuiLib_ud.dll
 0004:00000428       __imp_??0CDialogBuilder@DuiLib@@QAE@XZ 00451428     DuiLib_ud:DuiLib_ud.dll
 0004:0000042c       __imp_?Create@CDialogBuilder@DuiLib@@QAEPAVCControlUI@2@VSTRINGorID@2@PB_WPAVIDialogBuilderCallback@2@PAVCPaintManagerUI@2@PAV32@@Z 0045142c     DuiLib_ud:DuiLib_ud.dll
 0004:00000430       __imp_??1CDialogBuilder@DuiLib@@QAE@XZ 00451430     DuiLib_ud:DuiLib_ud.dll
 0004:00000434       __imp_?DrawImageString@CRenderEngine@DuiLib@@SA_NPAUHDC__@@PAVCPaintManagerUI@2@ABUtagRECT@@2PB_W3@Z 00451434     DuiLib_ud:DuiLib_ud.dll
 0004:00000438       __imp_?DrawTextW@CRenderEngine@DuiLib@@SAXPAUHDC__@@PAVCPaintManagerUI@2@AAUtagRECT@@PB_WKHI@Z 00451438     DuiLib_ud:DuiLib_ud.dll
 0004:0000043c       __imp_?DrawHtmlText@CRenderEngine@DuiLib@@SAXPAUHDC__@@PAVCPaintManagerUI@2@AAUtagRECT@@PB_WKPAU5@PAVCStdString@2@AAHI@Z 0045143c     DuiLib_ud:DuiLib_ud.dll
 0004:00000440       __imp_?Add@CContainerUI@DuiLib@@UAE_NPAVCControlUI@2@@Z 00451440     DuiLib_ud:DuiLib_ud.dll
 0004:00000444       __imp_?AddAt@CContainerUI@DuiLib@@UAE_NPAVCControlUI@2@H@Z 00451444     DuiLib_ud:DuiLib_ud.dll
 0004:00000448       __imp_?DoPaint@CContainerUI@DuiLib@@UAEXPAUHDC__@@ABUtagRECT@@@Z 00451448     DuiLib_ud:DuiLib_ud.dll
 0004:0000044c       __imp_?DoPostPaint@CVerticalLayoutUI@DuiLib@@UAEXPAUHDC__@@ABUtagRECT@@@Z 0045144c     DuiLib_ud:DuiLib_ud.dll
 0004:00000450       __imp_?EnableScrollBar@CContainerUI@DuiLib@@UAEX_N0@Z 00451450     DuiLib_ud:DuiLib_ud.dll
 0004:00000454       __imp_?EnableScrollBar@CListUI@DuiLib@@UAEX_N0@Z 00451454     DuiLib_ud:DuiLib_ud.dll
 0004:00000458       __imp_?EndDown@CContainerUI@DuiLib@@UAEXXZ 00451458     DuiLib_ud:DuiLib_ud.dll
 0004:0000045c       __imp_?EndDown@CListUI@DuiLib@@UAEXXZ 0045145c     DuiLib_ud:DuiLib_ud.dll
 0004:00000460       __imp_?EndRight@CContainerUI@DuiLib@@UAEXXZ 00451460     DuiLib_ud:DuiLib_ud.dll
 0004:00000464       __imp_?EndRight@CListUI@DuiLib@@UAEXXZ 00451464     DuiLib_ud:DuiLib_ud.dll
 0004:00000468       __imp_?Expand@CListContainerElementUI@DuiLib@@UAE_N_N@Z 00451468     DuiLib_ud:DuiLib_ud.dll
 0004:0000046c       __imp_?ExpandItem@CListUI@DuiLib@@UAE_NH_N@Z 0045146c     DuiLib_ud:DuiLib_ud.dll
 0004:00000470       __imp_?FindControl@CContainerUI@DuiLib@@UAEPAVCControlUI@2@P6GPAV32@PAV32@PAX@Z1I@Z 00451470     DuiLib_ud:DuiLib_ud.dll
 0004:00000474       __imp_?FindSelectable@CContainerUI@DuiLib@@UBEHH_N@Z 00451474     DuiLib_ud:DuiLib_ud.dll
 0004:00000478       __imp_?GetChildPadding@CContainerUI@DuiLib@@UBEHXZ 00451478     DuiLib_ud:DuiLib_ud.dll
 0004:0000047c       __imp_?GetChildPadding@CListUI@DuiLib@@UBEHXZ 0045147c     DuiLib_ud:DuiLib_ud.dll
 0004:00000480       __imp_?GetClassStyle@CWindowWnd@DuiLib@@MBEIXZ 00451480     DuiLib_ud:DuiLib_ud.dll
 0004:00000484       __imp_?GetControlFlags@CListContainerElementUI@DuiLib@@UBEIXZ 00451484     DuiLib_ud:DuiLib_ud.dll
 0004:00000488       __imp_?GetControlFlags@CListUI@DuiLib@@UBEIXZ 00451488     DuiLib_ud:DuiLib_ud.dll
 0004:0000048c       __imp_?GetCount@CContainerUI@DuiLib@@UBEHXZ 0045148c     DuiLib_ud:DuiLib_ud.dll
 0004:00000490       __imp_?GetCount@CListUI@DuiLib@@UBEHXZ 00451490     DuiLib_ud:DuiLib_ud.dll
 0004:00000494       __imp_?GetCurSel@CListUI@DuiLib@@UBEHXZ 00451494     DuiLib_ud:DuiLib_ud.dll
 0004:00000498       __imp_?GetExpandedItem@CListUI@DuiLib@@UBEHXZ 00451498     DuiLib_ud:DuiLib_ud.dll
 0004:0000049c       __imp_?GetHorizontalScrollBar@CContainerUI@DuiLib@@UBEPAVCScrollBarUI@2@XZ 0045149c     DuiLib_ud:DuiLib_ud.dll
 0004:000004a0       __imp_?GetHorizontalScrollBar@CListUI@DuiLib@@UBEPAVCScrollBarUI@2@XZ 004514a0     DuiLib_ud:DuiLib_ud.dll
 0004:000004a4       __imp_?GetIndex@CListContainerElementUI@DuiLib@@UBEHXZ 004514a4     DuiLib_ud:DuiLib_ud.dll
 0004:000004a8       __imp_?GetInset@CContainerUI@DuiLib@@UBE?AUtagRECT@@XZ 004514a8     DuiLib_ud:DuiLib_ud.dll
 0004:000004ac       __imp_?GetItemAt@CContainerUI@DuiLib@@UBEPAVCControlUI@2@H@Z 004514ac     DuiLib_ud:DuiLib_ud.dll
 0004:000004b0       __imp_?GetItemAt@CListUI@DuiLib@@UBEPAVCControlUI@2@H@Z 004514b0     DuiLib_ud:DuiLib_ud.dll
 0004:000004b4       __imp_?GetItemIndex@CContainerUI@DuiLib@@UBEHPAVCControlUI@2@@Z 004514b4     DuiLib_ud:DuiLib_ud.dll
 0004:000004b8       __imp_?RemoveAt@CListUI@DuiLib@@UAE_NH@Z 004514b8     DuiLib_ud:DuiLib_ud.dll
 0004:000004bc       \177DuiLib_ud_NULL_THUNK_DATA 004514bc     DuiLib_ud:DuiLib_ud.dll
 0004:000005cc       __imp__CreateRoundRectRgn@24 004515cc     gdi32:GDI32.dll
 0004:000005d0       __imp__EnumFontFamiliesExW@20 004515d0     gdi32:GDI32.dll
 0004:000005d4       __imp__MoveToEx@16         004515d4     gdi32:GDI32.dll
 0004:000005d8       __imp__SelectObject@8      004515d8     gdi32:GDI32.dll
 0004:000005dc       __imp__Rectangle@20        004515dc     gdi32:GDI32.dll
 0004:000005e0       __imp__LineTo@12           004515e0     gdi32:GDI32.dll
 0004:000005e4       __imp__GetStockObject@4    004515e4     gdi32:GDI32.dll
 0004:000005e8       __imp__DeleteObject@4      004515e8     gdi32:GDI32.dll
 0004:000005ec       __imp__CreateSolidBrush@4  004515ec     gdi32:GDI32.dll
 0004:000005f0       __imp__CreatePen@12        004515f0     gdi32:GDI32.dll
 0004:000005f4       \177GDI32_NULL_THUNK_DATA  004515f4     gdi32:GDI32.dll
 0004:00000628       __imp__EncodePointer@4     00451628     kernel32:KERNEL32.dll
 0004:0000062c       __imp__DecodePointer@4     0045162c     kernel32:KERNEL32.dll
 0004:00000630       __imp__IsDebuggerPresent@0 00451630     kernel32:KERNEL32.dll
 0004:00000634       __imp__RaiseException@16   00451634     kernel32:KERNEL32.dll
 0004:00000638       __imp__GetLastError@0      00451638     kernel32:KERNEL32.dll
 0004:0000063c       __imp__LoadLibraryExW@12   0045163c     kernel32:KERNEL32.dll
 0004:00000640       __imp__IsProcessorFeaturePresent@4 00451640     kernel32:KERNEL32.dll
 0004:00000644       __imp__QueryPerformanceCounter@4 00451644     kernel32:KERNEL32.dll
 0004:00000648       __imp__GetCurrentProcessId@0 00451648     kernel32:KERNEL32.dll
 0004:0000064c       __imp__GetCurrentThreadId@0 0045164c     kernel32:KERNEL32.dll
 0004:00000650       __imp__GetSystemTimeAsFileTime@4 00451650     kernel32:KERNEL32.dll
 0004:00000654       __imp__HeapAlloc@12        00451654     kernel32:KERNEL32.dll
 0004:00000658       __imp__HeapFree@12         00451658     kernel32:KERNEL32.dll
 0004:0000065c       __imp__GetProcessHeap@0    0045165c     kernel32:KERNEL32.dll
 0004:00000660       __imp__VirtualQuery@12     00451660     kernel32:KERNEL32.dll
 0004:00000664       __imp__WideCharToMultiByte@32 00451664     kernel32:KERNEL32.dll
 0004:00000668       __imp__MultiByteToWideChar@24 00451668     kernel32:KERNEL32.dll
 0004:0000066c       __imp__GlobalUnlock@4      0045166c     kernel32:KERNEL32.dll
 0004:00000670       __imp__GlobalLock@4        00451670     kernel32:KERNEL32.dll
 0004:00000674       __imp__GlobalAlloc@8       00451674     kernel32:KERNEL32.dll
 0004:00000678       __imp__GetProcAddress@8    00451678     kernel32:KERNEL32.dll
 0004:0000067c       __imp__LoadLibraryW@4      0045167c     kernel32:KERNEL32.dll
 0004:00000680       __imp__FreeLibrary@4       00451680     kernel32:KERNEL32.dll
 0004:00000684       __imp__GetModuleFileNameW@12 00451684     kernel32:KERNEL32.dll
 0004:00000688       __imp__GetTempPathW@8      00451688     kernel32:KERNEL32.dll
 0004:0000068c       __imp__GetFileAttributesW@4 0045168c     kernel32:KERNEL32.dll
 0004:00000690       __imp__CreateDirectoryW@8  00451690     kernel32:KERNEL32.dll
 0004:00000694       __imp__GetCurrentDirectoryW@8 00451694     kernel32:KERNEL32.dll
 0004:00000698       __imp__CopyFileW@12        00451698     kernel32:KERNEL32.dll
 0004:0000069c       __imp__GetModuleHandleW@4  0045169c     kernel32:KERNEL32.dll
 0004:000006a0       \177KERNEL32_NULL_THUNK_DATA 004516a0     kernel32:KERNEL32.dll
 0004:000006e4       __imp_?_Winerror_map@std@@YAPBDH@Z 004516e4     msvcprtd:MSVCP120D.dll
 0004:000006e8       __imp_?_Syserror_map@std@@YAPBDH@Z 004516e8     msvcprtd:MSVCP120D.dll
 0004:000006ec       __imp_??0id@locale@std@@QAE@I@Z 004516ec     msvcprtd:MSVCP120D.dll
 0004:000006f0       __imp_?_Xout_of_range@std@@YAXPBD@Z 004516f0     msvcprtd:MSVCP120D.dll
 0004:000006f4       __imp_?_Xlength_error@std@@YAXPBD@Z 004516f4     msvcprtd:MSVCP120D.dll
 0004:000006f8       __imp_?_Xbad_alloc@std@@YAXXZ 004516f8     msvcprtd:MSVCP120D.dll
 0004:000006fc       __imp_?_Orphan_all@_Container_base12@std@@QAEXXZ 004516fc     msvcprtd:MSVCP120D.dll
 0004:00000700       __imp_?_Getpfirst@_Container_base12@std@@QBEPAPAU_Iterator_base12@2@XZ 00451700     msvcprtd:MSVCP120D.dll
 0004:00000704       __imp_??1_Container_base12@std@@QAE@XZ 00451704     msvcprtd:MSVCP120D.dll
 0004:00000708       __imp_??0_Container_base12@std@@QAE@XZ 00451708     msvcprtd:MSVCP120D.dll
 0004:0000070c       __imp_?_Debug_message@std@@YAXPB_W0I@Z 0045170c     msvcprtd:MSVCP120D.dll
 0004:00000710       __imp_??1_Lockit@std@@QAE@XZ 00451710     msvcprtd:MSVCP120D.dll
 0004:00000714       __imp_??0_Lockit@std@@QAE@H@Z 00451714     msvcprtd:MSVCP120D.dll
 0004:00000718       \177MSVCP120D_NULL_THUNK_DATA 00451718     msvcprtd:MSVCP120D.dll
 0004:0000074c       __imp___wcmdln             0045174c     MSVCRTD:MSVCR120D.dll
 0004:00000750       __imp___initterm           00451750     MSVCRTD:MSVCR120D.dll
 0004:00000754       __imp___initterm_e         00451754     MSVCRTD:MSVCR120D.dll
 0004:00000758       __imp____setusermatherr    00451758     MSVCRTD:MSVCR120D.dll
 0004:0000075c       __imp___configthreadlocale 0045175c     MSVCRTD:MSVCR120D.dll
 0004:00000760       __imp___cexit              00451760     MSVCRTD:MSVCR120D.dll
 0004:00000764       __imp___exit               00451764     MSVCRTD:MSVCR120D.dll
 0004:00000768       __imp__exit                00451768     MSVCRTD:MSVCR120D.dll
 0004:0000076c       __imp___CrtSetCheckCount   0045176c     MSVCRTD:MSVCR120D.dll
 0004:00000770       __imp____set_app_type      00451770     MSVCRTD:MSVCR120D.dll
 0004:00000774       __imp___fmode              00451774     MSVCRTD:MSVCR120D.dll
 0004:00000778       __imp___amsg_exit          00451778     MSVCRTD:MSVCR120D.dll
 0004:0000077c       __imp____crtGetShowWindowMode 0045177c     MSVCRTD:MSVCR120D.dll
 0004:00000780       __imp___XcptFilter         00451780     MSVCRTD:MSVCR120D.dll
 0004:00000784       __imp___onexit             00451784     MSVCRTD:MSVCR120D.dll
 0004:00000788       __imp____dllonexit         00451788     MSVCRTD:MSVCR120D.dll
 0004:0000078c       __imp___calloc_dbg         0045178c     MSVCRTD:MSVCR120D.dll
 0004:00000790       __imp___unlock             00451790     MSVCRTD:MSVCR120D.dll
 0004:00000794       __imp___lock               00451794     MSVCRTD:MSVCR120D.dll
 0004:00000798       __imp_??1type_info@@UAE@XZ 00451798     MSVCRTD:MSVCR120D.dll
 0004:0000079c       __imp___CRT_RTC_INITW      0045179c     MSVCRTD:MSVCR120D.dll
 0004:000007a0       __imp___commode            004517a0     MSVCRTD:MSVCR120D.dll
 0004:000007a4       __imp___crt_debugger_hook  004517a4     MSVCRTD:MSVCR120D.dll
 0004:000007a8       __imp____crtUnhandledException 004517a8     MSVCRTD:MSVCR120D.dll
 0004:000007ac       __imp____crtTerminateProcess 004517ac     MSVCRTD:MSVCR120D.dll
 0004:000007b0       __imp_?terminate@@YAXXZ    004517b0     MSVCRTD:MSVCR120D.dll
 0004:000007b4       __imp___except_handler4_common 004517b4     MSVCRTD:MSVCR120D.dll
 0004:000007b8       __imp____crtSetUnhandledExceptionFilter 004517b8     MSVCRTD:MSVCR120D.dll
 0004:000007bc       __imp___invoke_watson      004517bc     MSVCRTD:MSVCR120D.dll
 0004:000007c0       __imp___controlfp_s        004517c0     MSVCRTD:MSVCR120D.dll
 0004:000007c4       __imp__wcscpy_s            004517c4     MSVCRTD:MSVCR120D.dll
 0004:000007c8       __imp___wmakepath_s        004517c8     MSVCRTD:MSVCR120D.dll
 0004:000007cc       __imp___wsplitpath_s       004517cc     MSVCRTD:MSVCR120D.dll
 0004:000007d0       __imp____wgetmainargs      004517d0     MSVCRTD:MSVCR120D.dll
 0004:000007d4       __imp_??3@YAXPAX@Z         004517d4     MSVCRTD:MSVCR120D.dll
 0004:000007d8       __imp__wcscmp              004517d8     MSVCRTD:MSVCR120D.dll
 0004:000007dc       __imp____CxxFrameHandler3  004517dc     MSVCRTD:MSVCR120D.dll
 0004:000007e0       __imp_??2@YAPAXI@Z         004517e0     MSVCRTD:MSVCR120D.dll
 0004:000007e4       __imp___invalid_parameter  004517e4     MSVCRTD:MSVCR120D.dll
 0004:000007e8       __imp__memmove             004517e8     MSVCRTD:MSVCR120D.dll
 0004:000007ec       __imp___CrtDbgReportW      004517ec     MSVCRTD:MSVCR120D.dll
 0004:000007f0       __imp___CxxThrowException@8 004517f0     MSVCRTD:MSVCR120D.dll
 0004:000007f4       __imp__memcpy              004517f4     MSVCRTD:MSVCR120D.dll
 0004:000007f8       __imp__wcslen              004517f8     MSVCRTD:MSVCR120D.dll
 0004:000007fc       __imp__wcstol              004517fc     MSVCRTD:MSVCR120D.dll
 0004:00000800       __imp___wcsicmp            00451800     MSVCRTD:MSVCR120D.dll
 0004:00000800       __imp__wcsicmp             00451800     MSVCRTD:MSVCR120D.dll
 0004:00000804       __imp__memset              00451804     MSVCRTD:MSVCR120D.dll
 0004:00000808       __imp__wcsncpy             00451808     MSVCRTD:MSVCR120D.dll
 0004:0000080c       __imp_??_V@YAXPAX@Z        0045180c     MSVCRTD:MSVCR120D.dll
 0004:00000810       __imp__memcmp              00451810     MSVCRTD:MSVCR120D.dll
 0004:00000814       __imp__wcschr              00451814     MSVCRTD:MSVCR120D.dll
 0004:00000818       __imp__wcsrchr             00451818     MSVCRTD:MSVCR120D.dll
 0004:0000081c       __imp__free                0045181c     MSVCRTD:MSVCR120D.dll
 0004:00000820       __imp__malloc              00451820     MSVCRTD:MSVCR120D.dll
 0004:00000824       __imp__wcsstr              00451824     MSVCRTD:MSVCR120D.dll
 0004:00000828       __imp___time64             00451828     MSVCRTD:MSVCR120D.dll
 0004:0000082c       __imp__wcscat              0045182c     MSVCRTD:MSVCR120D.dll
 0004:00000830       __imp__wcscpy              00451830     MSVCRTD:MSVCR120D.dll
 0004:00000834       __imp___purecall           00451834     MSVCRTD:MSVCR120D.dll
 0004:00000838       __imp__strlen              00451838     MSVCRTD:MSVCR120D.dll
 0004:0000083c       __imp___hypot              0045183c     MSVCRTD:MSVCR120D.dll
 0004:00000840       __imp____RTDynamicCast     00451840     MSVCRTD:MSVCR120D.dll
 0004:00000844       __imp__isdigit             00451844     MSVCRTD:MSVCR120D.dll
 0004:00000848       __imp__wcsftime            00451848     MSVCRTD:MSVCR120D.dll
 0004:0000084c       __imp___localtime64        0045184c     MSVCRTD:MSVCR120D.dll
 0004:00000850       __imp___wtoi               00451850     MSVCRTD:MSVCR120D.dll
 0004:00000854       \177MSVCR120D_NULL_THUNK_DATA 00451854     MSVCRTD:MSVCR120D.dll
 0004:000008b4       __imp__VariantInit@4       004518b4     oleaut32:OLEAUT32.dll
 0004:000008b8       __imp__SysFreeString@4     004518b8     oleaut32:OLEAUT32.dll
 0004:000008bc       __imp__SysAllocString@4    004518bc     oleaut32:OLEAUT32.dll
 0004:000008c0       __imp__VariantClear@4      004518c0     oleaut32:OLEAUT32.dll
 0004:000008c4       \177OLEAUT32_NULL_THUNK_DATA 004518c4     oleaut32:OLEAUT32.dll
 0004:000008f0       __imp__ShellExecuteW@24    004518f0     shell32:SHELL32.dll
 0004:000008f4       \177SHELL32_NULL_THUNK_DATA 004518f4     shell32:SHELL32.dll
 0004:00000920       __imp__GetWindowRect@8     00451920     user32:USER32.dll
 0004:00000924       __imp__MapWindowPoints@16  00451924     user32:USER32.dll
 0004:00000928       __imp__IntersectRect@12    00451928     user32:USER32.dll
 0004:0000092c       __imp__GetWindowLongW@8    0045192c     user32:USER32.dll
 0004:00000930       __imp__SetWindowLongW@12   00451930     user32:USER32.dll
 0004:00000934       __imp__MonitorFromWindow@8 00451934     user32:USER32.dll
 0004:00000938       __imp__GetMonitorInfoW@8   00451938     user32:USER32.dll
 0004:0000093c       __imp__SetForegroundWindow@4 0045193c     user32:USER32.dll
 0004:00000940       __imp__GetDC@4             00451940     user32:USER32.dll
 0004:00000944       __imp__ReleaseDC@8         00451944     user32:USER32.dll
 0004:00000948       __imp__GetWindowTextLengthW@4 00451948     user32:USER32.dll
 0004:0000094c       __imp__IsIconic@4          0045194c     user32:USER32.dll
 0004:00000950       __imp__SetWindowRgn@12     00451950     user32:USER32.dll
 0004:00000954       __imp__ScreenToClient@8    00451954     user32:USER32.dll
 0004:00000958       __imp__FlashWindowEx@4     00451958     user32:USER32.dll
 0004:0000095c       __imp__MoveWindow@24       0045195c     user32:USER32.dll
 0004:00000960       __imp__OffsetRect@12       00451960     user32:USER32.dll
 0004:00000964       __imp__SendMessageW@16     00451964     user32:USER32.dll
 0004:00000968       __imp__SetRect@20          00451968     user32:USER32.dll
 0004:0000096c       __imp__SetRectEmpty@4      0045196c     user32:USER32.dll
 0004:00000970       __imp__PtInRect@12         00451970     user32:USER32.dll
 0004:00000974       __imp__PostMessageW@16     00451974     user32:USER32.dll
 0004:00000978       __imp__DestroyWindow@4     00451978     user32:USER32.dll
 0004:0000097c       __imp__GetWindowTextW@12   0045197c     user32:USER32.dll
 0004:00000980       __imp__MessageBoxW@16      00451980     user32:USER32.dll
 0004:00000984       __imp__IsCharAlphaW@4      00451984     user32:USER32.dll
 0004:00000988       __imp__FindWindowW@8       00451988     user32:USER32.dll
 0004:0000098c       __imp__GetParent@4         0045198c     user32:USER32.dll
 0004:00000990       __imp__wsprintfW           00451990     user32:USER32.dll
 0004:00000994       __imp__PostQuitMessage@4   00451994     user32:USER32.dll
 0004:00000998       __imp__ClientToScreen@8    00451998     user32:USER32.dll
 0004:0000099c       __imp__IsWindow@4          0045199c     user32:USER32.dll
 0004:000009a0       __imp__ShowWindow@8        004519a0     user32:USER32.dll
 0004:000009a4       __imp__SetWindowPos@28     004519a4     user32:USER32.dll
 0004:000009a8       __imp__IsZoomed@4          004519a8     user32:USER32.dll
 0004:000009ac       __imp__GetClientRect@8     004519ac     user32:USER32.dll
 0004:000009b0       \177USER32_NULL_THUNK_DATA 004519b0     user32:USER32.dll
 0004:000009f8       __imp__GdipGetImageRawFormat@8 004519f8     gdiplus:gdiplus.dll
 0004:000009fc       __imp__GdipImageGetFrameDimensionsCount@8 004519fc     gdiplus:gdiplus.dll
 0004:00000a00       __imp__GdipImageGetFrameDimensionsList@12 00451a00     gdiplus:gdiplus.dll
 0004:00000a04       __imp__GdipImageGetFrameCount@12 00451a04     gdiplus:gdiplus.dll
 0004:00000a08       __imp__GdipImageSelectActiveFrame@12 00451a08     gdiplus:gdiplus.dll
 0004:00000a0c       __imp__GdipGetPropertyItemSize@12 00451a0c     gdiplus:gdiplus.dll
 0004:00000a10       __imp__GdipGetPropertyItem@16 00451a10     gdiplus:gdiplus.dll
 0004:00000a14       __imp__GdipCreateFromHDC@8 00451a14     gdiplus:gdiplus.dll
 0004:00000a18       __imp__GdipDeleteGraphics@4 00451a18     gdiplus:gdiplus.dll
 0004:00000a1c       __imp__GdipDrawImageI@16   00451a1c     gdiplus:gdiplus.dll
 0004:00000a20       __imp__GdipDrawImageRectI@24 00451a20     gdiplus:gdiplus.dll
 0004:00000a24       __imp__GdipGetImageEncodersSize@8 00451a24     gdiplus:gdiplus.dll
 0004:00000a28       __imp__GdipGetImageEncoders@12 00451a28     gdiplus:gdiplus.dll
 0004:00000a2c       __imp__GdiplusStartup@12   00451a2c     gdiplus:gdiplus.dll
 0004:00000a30       __imp__GdiplusShutdown@4   00451a30     gdiplus:gdiplus.dll
 0004:00000a34       __imp__GdipGetImageHeight@8 00451a34     gdiplus:gdiplus.dll
 0004:00000a38       __imp__GdipGetImageWidth@8 00451a38     gdiplus:gdiplus.dll
 0004:00000a3c       __imp__GdipSaveImageToFile@16 00451a3c     gdiplus:gdiplus.dll
 0004:00000a40       __imp__GdipDisposeImage@4  00451a40     gdiplus:gdiplus.dll
 0004:00000a44       __imp__GdipCloneImage@8    00451a44     gdiplus:gdiplus.dll
 0004:00000a48       __imp__GdipLoadImageFromFile@8 00451a48     gdiplus:gdiplus.dll
 0004:00000a4c       __imp__GdipFree@4          00451a4c     gdiplus:gdiplus.dll
 0004:00000a50       __imp__GdipAlloc@4         00451a50     gdiplus:gdiplus.dll
 0004:00000a54       __imp__GdipLoadImageFromFileICM@8 00451a54     gdiplus:gdiplus.dll
 0004:00000a58       \177gdiplus_NULL_THUNK_DATA 00451a58     gdiplus:gdiplus.dll
 0004:00000a94       __imp__OleUninitialize@0   00451a94     ole32:ole32.dll
 0004:00000a98       __imp__OleInitialize@4     00451a98     ole32:ole32.dll
 0004:00000a9c       __imp__CoCreateInstance@20 00451a9c     ole32:ole32.dll
 0004:00000aa0       __imp__RevokeDragDrop@4    00451aa0     ole32:ole32.dll
 0004:00000aa4       __imp__RegisterDragDrop@8  00451aa4     ole32:ole32.dll
 0004:00000aa8       __imp__OleSetContainedObject@8 00451aa8     ole32:ole32.dll
 0004:00000aac       \177ole32_NULL_THUNK_DATA  00451aac     ole32:ole32.dll
 0004:00000adc       __IMPORT_DESCRIPTOR_KERNEL32 00451adc     kernel32:KERNEL32.dll
 0004:00000af0       __IMPORT_DESCRIPTOR_USER32 00451af0     user32:USER32.dll
 0004:00000b04       __IMPORT_DESCRIPTOR_GDI32  00451b04     gdi32:GDI32.dll
 0004:00000b18       __IMPORT_DESCRIPTOR_COMDLG32 00451b18     comdlg32:COMDLG32.dll
 0004:00000b2c       __IMPORT_DESCRIPTOR_SHELL32 00451b2c     shell32:SHELL32.dll
 0004:00000b40       __IMPORT_DESCRIPTOR_ole32  00451b40     ole32:ole32.dll
 0004:00000b54       __IMPORT_DESCRIPTOR_OLEAUT32 00451b54     oleaut32:OLEAUT32.dll
 0004:00000b68       __IMPORT_DESCRIPTOR_DuiLib_ud 00451b68     DuiLib_ud:DuiLib_ud.dll
 0004:00000b7c       __IMPORT_DESCRIPTOR_MSVCP120D 00451b7c     msvcprtd:MSVCP120D.dll
 0004:00000b90       __IMPORT_DESCRIPTOR_MSVCR120D 00451b90     MSVCRTD:MSVCR120D.dll
 0004:00000ba4       __IMPORT_DESCRIPTOR_gdiplus 00451ba4     gdiplus:gdiplus.dll
 0004:00000bb8       __NULL_IMPORT_DESCRIPTOR   00451bb8     kernel32:KERNEL32.dll

 entry point at        0001:00039e80

